

Microchip MPLAB XC8 Assembler V2.45 build 20230818022343 
                                                                                               Wed Nov 06 13:39:52 2024

Microchip MPLAB XC8 C Compiler v2.45 (Free license) build 20230818022343 Og1 
     1                           	processor	18F4620
     2                           	fnconf	rparam,??,?,0
     3                           	pagewidth 120
     4                           	opt	flic
     5                           	psect	idataCOMRAM,global,class=CODE,delta=1,noexec
     6                           	psect	idataBANK0,global,class=CODE,delta=1,noexec
     7                           	psect	smallconst,global,reloc=2,class=SMALLCONST,delta=1,noexec
     8                           	psect	nvCOMRAM,global,class=COMRAM,space=1,delta=1,lowdata,noexec
     9                           	psect	cinit,global,reloc=2,class=CODE,delta=1
    10                           	psect	bssCOMRAM,global,class=COMRAM,space=1,delta=1,lowdata,noexec
    11                           	psect	dataCOMRAM,global,class=COMRAM,space=1,delta=1,lowdata,noexec
    12                           	psect	bssBANK0,global,class=BANK0,space=1,delta=1,lowdata,noexec
    13                           	psect	dataBANK0,global,class=BANK0,space=1,delta=1,lowdata,noexec
    14                           	psect	cstackCOMRAM,global,class=COMRAM,space=1,delta=1,lowdata,noexec
    15                           	psect	text0,global,reloc=2,class=CODE,delta=1
    16                           	psect	text1,global,reloc=2,class=CODE,delta=1
    17                           	psect	text2,global,reloc=2,class=CODE,delta=1
    18                           	psect	text3,global,reloc=2,class=CODE,delta=1
    19                           	psect	text4,global,reloc=2,class=CODE,delta=1
    20                           	psect	text5,global,reloc=2,class=CODE,delta=1
    21                           	psect	text6,global,reloc=2,class=CODE,delta=1,group=3
    22                           	psect	text7,global,reloc=2,class=CODE,delta=1,group=1
    23                           	psect	text8,global,reloc=2,class=CODE,delta=1,group=1
    24                           	psect	text9,global,reloc=2,class=CODE,delta=1,group=3
    25                           	psect	text10,global,reloc=2,class=CODE,delta=1,group=3
    26                           	psect	text11,global,reloc=2,class=CODE,delta=1,group=3
    27                           	psect	text12,global,reloc=2,class=CODE,delta=1,group=2
    28                           	psect	text13,global,reloc=2,class=CODE,delta=1,group=2
    29                           	psect	text14,global,reloc=2,class=CODE,delta=1,group=3
    30                           	psect	text15,global,reloc=2,class=CODE,delta=1
    31                           	psect	text16,global,reloc=2,class=CODE,delta=1
    32                           	psect	text17,global,reloc=2,class=CODE,delta=1
    33                           	psect	text18,global,reloc=2,class=CODE,delta=1
    34                           	psect	text19,global,reloc=2,class=CODE,delta=1
    35                           	psect	text20,global,reloc=2,class=CODE,delta=1
    36                           	psect	text21,global,reloc=2,class=CODE,delta=1
    37                           	psect	text22,global,reloc=2,class=CODE,delta=1
    38                           	psect	text23,global,reloc=2,class=CODE,delta=1
    39                           	psect	text24,global,reloc=2,class=CODE,delta=1,inline
    40                           	psect	text25,global,reloc=2,class=CODE,delta=1,inline
    41                           	psect	text26,global,reloc=2,class=CODE,delta=1,group=2
    42                           	psect	text27,global,reloc=2,class=CODE,delta=1,group=2
    43                           	psect	text28,global,reloc=2,class=CODE,delta=1,group=2
    44                           	psect	text29,global,reloc=2,class=CODE,delta=1,group=2
    45                           	psect	text30,global,reloc=2,class=CODE,delta=1
    46                           	psect	text31,global,reloc=2,class=CODE,delta=1
    47                           	psect	text32,global,reloc=2,class=CODE,delta=1
    48                           	psect	text33,global,reloc=2,class=CODE,delta=1,inline
    49                           	psect	text34,global,reloc=2,class=CODE,delta=1
    50                           	psect	intcode,global,reloc=2,class=CODE,delta=1
    51                           	psect	intcode_body,global,reloc=2,class=CODE,delta=1
    52                           	psect	text36,global,reloc=2,class=CODE,delta=1
    53                           	psect	text37,global,reloc=2,class=CODE,delta=1
    54                           	psect	text38,global,reloc=2,class=CODE,delta=1
    55                           	psect	text39,global,reloc=2,class=CODE,delta=1
    56                           	psect	text40,global,reloc=2,class=CODE,delta=1
    57                           	psect	text41,global,reloc=2,class=CODE,delta=1
    58                           	psect	text42,global,reloc=2,class=CODE,delta=1
    59                           	psect	intsave_regs,global,class=BIGRAM,space=1,delta=1,noexec
    60                           	psect	rparam,global,class=COMRAM,space=1,delta=1,noexec
    61                           	psect	temp,global,ovrld,common,class=COMRAM,space=1,delta=1
    62                           	psect	idloc,global,abs,ovrld,class=IDLOC,space=5,delta=1,noexec
    63                           	psect	config,global,abs,ovrld,class=CONFIG,space=4,delta=1,noexec
    64   000000                     
    65                           ; Version 2.40
    66                           ; Generated 17/11/2021 GMT
    67                           ; 
    68                           ; Copyright © 2021, Microchip Technology Inc. and its subsidiaries ("Microchip")
    69                           ; All rights reserved.
    70                           ; 
    71                           ; This software is developed by Microchip Technology Inc. and its subsidiaries ("Microch
      +                          ip").
    72                           ; 
    73                           ; Redistribution and use in source and binary forms, with or without modification, are
    74                           ; permitted provided that the following conditions are met:
    75                           ; 
    76                           ;     1. Redistributions of source code must retain the above copyright notice, this lis
      +                          t of
    77                           ;        conditions and the following disclaimer.
    78                           ; 
    79                           ;     2. Redistributions in binary form must reproduce the above copyright notice, this 
      +                          list
    80                           ;        of conditions and the following disclaimer in the documentation and/or other
    81                           ;        materials provided with the distribution. Publication is not required when
    82                           ;        this file is used in an embedded application.
    83                           ; 
    84                           ;     3. Microchip's name may not be used to endorse or promote products derived from th
      +                          is
    85                           ;        software without specific prior written permission.
    86                           ; 
    87                           ; THIS SOFTWARE IS PROVIDED BY MICROCHIP "AS IS" AND ANY EXPRESS OR IMPLIED WARRANTIES,
    88                           ; INCLUDING, BUT NOT LIMITED TO, THE IMPLIED WARRANTIES OF MERCHANTABILITY AND FITNESS F
      +                          OR
    89                           ; PURPOSE ARE DISCLAIMED.  IN NO EVENT SHALL MICROCHIP BE LIABLE FOR ANY DIRECT, INDIREC
      +                          T,
    90                           ; INCIDENTAL, SPECIAL, EXEMPLARY, OR CONSEQUENTIAL DAMAGES (INCLUDING BUT NOT LIMITED TO
    91                           ; PROCUREMENT OF SUBSTITUTE GOODS OR SERVICES; LOSS OF USE, DATA OR PROFITS; OR BUSINESS
    92                           ; INTERRUPTION) HOWSOEVER CAUSED AND ON ANY THEORY OF LIABILITY, WHETHER IN CONTRACT, ST
      +                          RICT
    93                           ; LIABILITY, OR TORT (INCLUDING NEGLIGENCE OR OTHERWISE) ARISING IN ANY WAY OUT OF THE U
      +                          SE OF
    94                           ; THIS SOFTWARE, EVEN IF ADVISED OF THE POSSIBILITY OF SUCH DAMAGE.
    95                           ; 
    96                           ; 
    97                           ; Code-generator required, PIC18F4620 Definitions
    98                           ; 
    99                           ; SFR Addresses
   100   000000                     
   101                           	psect	idataCOMRAM
   102   002D0A                     __pidataCOMRAM:
   103                           	callstack 0
   104                           
   105                           ;initializer for _RB7_Flag
   106   002D0A  01                 	db	1
   107                           
   108                           ;initializer for _RB6_Flag
   109   002D0B  01                 	db	1
   110                           
   111                           ;initializer for _RB5_Flag
   112   002D0C  01                 	db	1
   113                           
   114                           ;initializer for _RB4_Flag
   115   002D0D  01                 	db	1
   116                           
   117                           ;initializer for _adc_1
   118   002D0E  05                 	db	5
   119   002D0F  05                 	db	5
   120   002D10  00                 	db	0
   121   002D11  01                 	db	1
   122                           
   123                           	psect	idataBANK0
   124   002C1C                     __pidataBANK0:
   125                           	callstack 0
   126                           
   127                           ;initializer for _port_reg
   128   002C1C  80                 	db	128
   129   002C1D  0F                 	db	15
   130   002C1E  81                 	db	129
   131   002C1F  0F                 	db	15
   132   002C20  82                 	db	130
   133   002C21  0F                 	db	15
   134   002C22  83                 	db	131
   135   002C23  0F                 	db	15
   136   002C24  84                 	db	132
   137   002C25  0F                 	db	15
   138                           
   139                           ;initializer for _lat_reg
   140   002C26  89                 	db	137
   141   002C27  0F                 	db	15
   142   002C28  8A                 	db	138
   143   002C29  0F                 	db	15
   144   002C2A  8B                 	db	139
   145   002C2B  0F                 	db	15
   146   002C2C  8C                 	db	140
   147   002C2D  0F                 	db	15
   148   002C2E  8D                 	db	141
   149   002C2F  0F                 	db	15
   150                           
   151                           ;initializer for _tris_reg
   152   002C30  92                 	db	146
   153   002C31  0F                 	db	15
   154   002C32  93                 	db	147
   155   002C33  0F                 	db	15
   156   002C34  94                 	db	148
   157   002C35  0F                 	db	15
   158   002C36  95                 	db	149
   159   002C37  0F                 	db	15
   160   002C38  96                 	db	150
   161   002C39  0F                 	db	15
   162                           
   163                           ;initializer for _lcd_1
   164   002C3A  02                 	db	2
   165   002C3B  0A                 	db	10
   166   002C3C  12                 	db	18
   167   002C3D  1A                 	db	26
   168   002C3E  22                 	db	34
   169   002C3F  2A                 	db	42
   170   002C40  32                 	db	50
   171   002C41  3A                 	db	58
   172   002C42  03                 	db	3
   173   002C43  0B                 	db	11
   174                           
   175                           	psect	smallconst
   176   001000                     __psmallconst:
   177                           	callstack 0
   178   001000  00                 	db	0
   179   001001                     _keypad_buttons:
   180                           	callstack 0
   181   001001  37                 	db	55
   182   001002  38                 	db	56
   183   001003  39                 	db	57
   184   001004  2F                 	db	47
   185   001005  34                 	db	52
   186   001006  35                 	db	53
   187   001007  36                 	db	54
   188   001008  2A                 	db	42
   189   001009  31                 	db	49
   190   00100A  32                 	db	50
   191   00100B  33                 	db	51
   192   00100C  2D                 	db	45
   193   00100D  23                 	db	35
   194   00100E  30                 	db	48
   195   00100F  3D                 	db	61
   196   001010  2B                 	db	43
   197   001011                     __end_of_keypad_buttons:
   198                           	callstack 0
   199   000000                     _ADCON1bits	set	4033
   200   000000                     _ADRESL	set	4035
   201   000000                     _ADRESH	set	4036
   202   000000                     _EECON2	set	4007
   203   000000                     _INTCON2bits	set	4081
   204   001011                     STR_5:
   205   001011  54                 	db	84	;'T'
   206   001012  65                 	db	101	;'e'
   207   001013  6D                 	db	109	;'m'
   208   001014  70                 	db	112	;'p'
   209   001015  65                 	db	101	;'e'
   210   001016  72                 	db	114	;'r'
   211   001017  61                 	db	97	;'a'
   212   001018  74                 	db	116	;'t'
   213   001019  75                 	db	117	;'u'
   214   00101A  72                 	db	114	;'r'
   215   00101B  65                 	db	101	;'e'
   216   00101C  20                 	db	32
   217   00101D  3D                 	db	61	;'='
   218   00101E  20                 	db	32
   219   00101F  00                 	db	0
   220   001020                     STR_4:
   221   001020  4C                 	db	76	;'L'
   222   001021  4D                 	db	77	;'M'
   223   001022  33                 	db	51	;'3'
   224   001023  35                 	db	53	;'5'
   225   001024  20                 	db	32
   226   001025  54                 	db	84	;'T'
   227   001026  65                 	db	101	;'e'
   228   001027  6D                 	db	109	;'m'
   229   001028  70                 	db	112	;'p'
   230   001029  20                 	db	32
   231   00102A  54                 	db	84	;'T'
   232   00102B  65                 	db	101	;'e'
   233   00102C  73                 	db	115	;'s'
   234   00102D  74                 	db	116	;'t'
   235   00102E  00                 	db	0
   236   00102F                     STR_1:
   237   00102F  25                 	db	37
   238   001030  69                 	db	105	;'i'
   239   001031  00                 	db	0
   240   001032  00                 	db	0	; dummy byte at the end
   241   000000                     
   242                           	psect	nvCOMRAM
   243   000079                     __pnvCOMRAM:
   244                           	callstack 0
   245   000079                     _lm35_C:
   246                           	callstack 0
   247   000079                     	ds	2
   248   00007B                     _ret:
   249                           	callstack 0
   250   00007B                     	ds	1
   251   000000                     _PORTBbits	set	3969
   252   000000                     _PORTE	set	3972
   253   000000                     _PORTD	set	3971
   254   000000                     _PORTC	set	3970
   255   000000                     _PORTB	set	3969
   256   000000                     _PORTA	set	3968
   257   000000                     _LATA	set	3977
   258   000000                     _TRISA	set	3986
   259   000000                     _EECON1bits	set	4006
   260   000000                     _EEDATA	set	4008
   261   000000                     _EEADR	set	4009
   262   000000                     _EEADRH	set	4010
   263   000000                     _INTCON3bits	set	4080
   264   000000                     _INTCONbits	set	4082
   265   000000                     _TRISE	set	3990
   266   000000                     _TRISD	set	3989
   267   000000                     _TRISC	set	3988
   268   000000                     _TRISB	set	3987
   269   000000                     _LATE	set	3981
   270   000000                     _LATD	set	3980
   271   000000                     _LATC	set	3979
   272   000000                     _LATB	set	3978
   273   000000                     _ADCON2bits	set	4032
   274   000000                     _ADCON0bits	set	4034
   275                           
   276                           ; #config settings
   277                           
   278                           	psect	cinit
   279   00282C                     __pcinit:
   280                           	callstack 0
   281   00282C                     start_initialization:
   282                           	callstack 0
   283   00282C                     __initialization:
   284                           	callstack 0
   285                           
   286                           ; Initialize objects allocated to BANK0 (40 bytes)
   287                           ; load TBLPTR registers with __pidataBANK0
   288   00282C  0E1C               	movlw	low __pidataBANK0
   289   00282E  6EF6               	movwf	tblptrl,c
   290   002830  0E2C               	movlw	high __pidataBANK0
   291   002832  6EF7               	movwf	tblptrh,c
   292   002834  0E00               	movlw	low (__pidataBANK0 shr (0+16))
   293   002836  6EF8               	movwf	tblptru,c
   294   002838  EE00  F080         	lfsr	0,__pdataBANK0
   295   00283C  EE10 F028          	lfsr	1,40
   296   002840                     copy_data0:
   297   002840  0009               	tblrd		*+
   298   002842  CFF5 FFEE          	movff	tablat,postinc0
   299   002846  50E5               	movf	postdec1,w,c
   300   002848  50E1               	movf	fsr1l,w,c
   301   00284A  E1FA               	bnz	copy_data0
   302                           
   303                           ; Initialize objects allocated to COMRAM (8 bytes)
   304                           ; load TBLPTR registers with __pidataCOMRAM
   305   00284C  0E0A               	movlw	low __pidataCOMRAM
   306   00284E  6EF6               	movwf	tblptrl,c
   307   002850  0E2D               	movlw	high __pidataCOMRAM
   308   002852  6EF7               	movwf	tblptrh,c
   309   002854  0E00               	movlw	low (__pidataCOMRAM shr (0+16))
   310   002856  6EF8               	movwf	tblptru,c
   311   002858  EE00  F071         	lfsr	0,__pdataCOMRAM
   312   00285C  EE10 F008          	lfsr	1,8
   313   002860                     copy_data1:
   314   002860  0009               	tblrd		*+
   315   002862  CFF5 FFEE          	movff	tablat,postinc0
   316   002866  50E5               	movf	postdec1,w,c
   317   002868  50E1               	movf	fsr1l,w,c
   318   00286A  E1FA               	bnz	copy_data1
   319                           
   320                           ; Clear objects allocated to BANK0 (39 bytes)
   321   00286C  EE00  F0A8         	lfsr	0,__pbssBANK0
   322   002870  0E27               	movlw	39
   323   002872                     clear_0:
   324   002872  6AEE               	clrf	postinc0,c
   325   002874  06E8               	decf	wreg,f,c
   326   002876  E1FD               	bnz	clear_0
   327                           
   328                           ; Clear objects allocated to COMRAM (37 bytes)
   329   002878  EE00  F04C         	lfsr	0,__pbssCOMRAM
   330   00287C  0E25               	movlw	37
   331   00287E                     clear_1:
   332   00287E  6AEE               	clrf	postinc0,c
   333   002880  06E8               	decf	wreg,f,c
   334   002882  E1FD               	bnz	clear_1
   335   002884                     end_of_initialization:
   336                           	callstack 0
   337   002884                     __end_of__initialization:
   338                           	callstack 0
   339   002884  907C               	bcf	int$flags,0,c	;clear compiler interrupt flag (level 1)
   340   002886  927C               	bcf	int$flags,1,c	;clear compiler interrupt flag (level 2)
   341   002888  0100               	movlb	0
   342   00288A  EF97  F010         	goto	_main	;jump to C main() function
   343                           
   344                           	psect	bssCOMRAM
   345   00004C                     __pbssCOMRAM:
   346                           	callstack 0
   347   00004C                     _width:
   348                           	callstack 0
   349   00004C                     	ds	2
   350   00004E                     _prec:
   351                           	callstack 0
   352   00004E                     	ds	2
   353   000050                     _RB7_Low_InterruptHandler:
   354                           	callstack 0
   355   000050                     	ds	2
   356   000052                     _RB7_High_InterruptHandler:
   357                           	callstack 0
   358   000052                     	ds	2
   359   000054                     _RB6_Low_InterruptHandler:
   360                           	callstack 0
   361   000054                     	ds	2
   362   000056                     _RB6_High_InterruptHandler:
   363                           	callstack 0
   364   000056                     	ds	2
   365   000058                     _RB5_Low_InterruptHandler:
   366                           	callstack 0
   367   000058                     	ds	2
   368   00005A                     _RB5_High_InterruptHandler:
   369                           	callstack 0
   370   00005A                     	ds	2
   371   00005C                     _RB4_Low_InterruptHandler:
   372                           	callstack 0
   373   00005C                     	ds	2
   374   00005E                     _RB4_High_InterruptHandler:
   375                           	callstack 0
   376   00005E                     	ds	2
   377   000060                     _INT2_InterruptHandler:
   378                           	callstack 0
   379   000060                     	ds	2
   380   000062                     _INT1_InterruptHandler:
   381                           	callstack 0
   382   000062                     	ds	2
   383   000064                     _INT0_InterruptHandler:
   384                           	callstack 0
   385   000064                     	ds	2
   386   000066                     _flags:
   387                           	callstack 0
   388   000066                     	ds	1
   389   000067                     relay_toggle@F3072:
   390                           	callstack 0
   391   000067                     	ds	1
   392   000068                     relay_off@F3067:
   393                           	callstack 0
   394   000068                     	ds	1
   395   000069                     relay_on@F3062:
   396                           	callstack 0
   397   000069                     	ds	1
   398   00006A                     relay_init@F3057:
   399                           	callstack 0
   400   00006A                     	ds	1
   401   00006B                     led_toggle@F3077:
   402                           	callstack 0
   403   00006B                     	ds	1
   404   00006C                     led_off@F3072:
   405                           	callstack 0
   406   00006C                     	ds	1
   407   00006D                     led_on@F3067:
   408                           	callstack 0
   409   00006D                     	ds	1
   410   00006E                     led_init@F3062:
   411                           	callstack 0
   412   00006E                     	ds	1
   413   00006F                     _lm35_res:
   414                           	callstack 0
   415   00006F                     	ds	2
   416                           
   417                           	psect	dataCOMRAM
   418   000071                     __pdataCOMRAM:
   419                           	callstack 0
   420   000071                     _RB7_Flag:
   421                           	callstack 0
   422   000071                     	ds	1
   423   000072                     _RB6_Flag:
   424                           	callstack 0
   425   000072                     	ds	1
   426   000073                     _RB5_Flag:
   427                           	callstack 0
   428   000073                     	ds	1
   429   000074                     _RB4_Flag:
   430                           	callstack 0
   431   000074                     	ds	1
   432   000075                     _adc_1:
   433                           	callstack 0
   434   000075                     	ds	4
   435                           
   436                           	psect	bssBANK0
   437   0000A8                     __pbssBANK0:
   438                           	callstack 0
   439   0000A8                     _dbuf:
   440                           	callstack 0
   441   0000A8                     	ds	32
   442   0000C8                     _lm35_txt:
   443                           	callstack 0
   444   0000C8                     	ds	7
   445                           
   446                           	psect	dataBANK0
   447   000080                     __pdataBANK0:
   448                           	callstack 0
   449   000080                     _port_reg:
   450                           	callstack 0
   451   000080                     	ds	10
   452   00008A                     _lat_reg:
   453                           	callstack 0
   454   00008A                     	ds	10
   455   000094                     _tris_reg:
   456                           	callstack 0
   457   000094                     	ds	10
   458   00009E                     _lcd_1:
   459                           	callstack 0
   460   00009E                     	ds	10
   461                           
   462                           	psect	cstackCOMRAM
   463   000001                     __pcstackCOMRAM:
   464                           	callstack 0
   465   000001                     RB4_ISR@state:
   466                           	callstack 0
   467   000001                     RB5_ISR@state:
   468                           	callstack 0
   469   000001                     RB6_ISR@state:
   470                           	callstack 0
   471   000001                     RB7_ISR@state:
   472                           	callstack 0
   473   000001                     
   474                           ; 1 bytes @ 0x0
   475   000001                     	ds	1
   476   000002                     ??_configure_adc_channel_port:
   477   000002                     ?___awdiv:
   478                           	callstack 0
   479   000002                     ?___awmod:
   480                           	callstack 0
   481   000002                     ?___xxtofl:
   482                           	callstack 0
   483   000002                     gpio_pin_direction_init@pin_confg:
   484                           	callstack 0
   485   000002                     gpio_pin_write@pin_confg:
   486                           	callstack 0
   487   000002                     ADC_start_conversion@adc_obj:
   488                           	callstack 0
   489   000002                     ADC_get_conversion_result@adc_obj:
   490                           	callstack 0
   491   000002                     configure_adc_volatage_ref@adc_obj:
   492                           	callstack 0
   493   000002                     configure_adc_result_format@adc_obj:
   494                           	callstack 0
   495   000002                     memset@dest:
   496                           	callstack 0
   497   000002                     ___awdiv@dividend:
   498                           	callstack 0
   499   000002                     ___awmod@dividend:
   500                           	callstack 0
   501   000002                     fputc@c:
   502                           	callstack 0
   503   000002                     ___xxtofl@val:
   504                           	callstack 0
   505                           
   506                           ; 4 bytes @ 0x1
   507   000002                     	ds	1
   508   000003                     ??_gpio_pin_direction_init:
   509   000003                     gpio_pin_write@pin_state:
   510                           	callstack 0
   511   000003                     ADC_start_conversion@ret:
   512                           	callstack 0
   513   000003                     ADC_get_conversion_result@adc_result:
   514                           	callstack 0
   515   000003                     memset@c:
   516                           	callstack 0
   517                           
   518                           ; 2 bytes @ 0x2
   519   000003                     	ds	1
   520   000004                     ??_gpio_pin_write:
   521   000004                     ??_ADC_get_conversion_result:
   522   000004                     configure_adc_channel_port@adc_ch:
   523                           	callstack 0
   524   000004                     fputc@fp:
   525                           	callstack 0
   526   000004                     ___awdiv@divisor:
   527                           	callstack 0
   528   000004                     ___awmod@divisor:
   529                           	callstack 0
   530                           
   531                           ; 2 bytes @ 0x3
   532   000004                     	ds	1
   533   000005                     ??_fputc:
   534   000005                     ADC_Init@adc_obj:
   535                           	callstack 0
   536   000005                     ADC_select_channel@adc_obj:
   537                           	callstack 0
   538   000005                     memset@n:
   539                           	callstack 0
   540                           
   541                           ; 2 bytes @ 0x4
   542   000005                     	ds	1
   543   000006                     ??_ADC_Init:
   544   000006                     ??___xxtofl:
   545   000006                     ADC_select_channel@chanel:
   546                           	callstack 0
   547   000006                     ___awdiv@counter:
   548                           	callstack 0
   549   000006                     ___awmod@counter:
   550                           	callstack 0
   551                           
   552                           ; 1 bytes @ 0x5
   553   000006                     	ds	1
   554   000007                     ??_ADC_select_channel:
   555   000007                     ADC_Init@ret:
   556                           	callstack 0
   557   000007                     ___awdiv@sign:
   558                           	callstack 0
   559   000007                     ___awmod@sign:
   560                           	callstack 0
   561   000007                     memset@p:
   562                           	callstack 0
   563                           
   564                           ; 1 bytes @ 0x6
   565   000007                     	ds	1
   566   000008                     ?_abs:
   567                           	callstack 0
   568   000008                     gpio_pin_direction_init@ret:
   569                           	callstack 0
   570   000008                     ADC_select_channel@ret:
   571                           	callstack 0
   572   000008                     ___awdiv@quotient:
   573                           	callstack 0
   574   000008                     abs@a:
   575                           	callstack 0
   576                           
   577                           ; 2 bytes @ 0x7
   578   000008                     	ds	1
   579   000009                     gpio_pin_write@ret:
   580                           	callstack 0
   581                           
   582                           ; 1 bytes @ 0x8
   583   000009                     	ds	1
   584   00000A                     ??_abs:
   585   00000A                     lcd_send_bits@lcd_obj:
   586                           	callstack 0
   587   00000A                     lcd_send_enable_signal@lcd_obj:
   588                           	callstack 0
   589   00000A                     gpio_pin_init@pin_confg:
   590                           	callstack 0
   591   00000A                     ADC_get_conversion_result@ret:
   592                           	callstack 0
   593   00000A                     ___xxtofl@sign:
   594                           	callstack 0
   595                           
   596                           ; 1 bytes @ 0x9
   597   00000A                     	ds	1
   598   00000B                     ??_gpio_pin_init:
   599   00000B                     lcd_send_bits@data_cmd:
   600                           	callstack 0
   601   00000B                     lcd_send_enable_signal@ret:
   602                           	callstack 0
   603   00000B                     ADC_get_conversion_result_blocking@adc_obj:
   604                           	callstack 0
   605   00000B                     ___xxtofl@exp:
   606                           	callstack 0
   607                           
   608                           ; 1 bytes @ 0xA
   609   00000B                     	ds	1
   610   00000C                     ??_lcd_send_bits:
   611   00000C                     gpio_pin_init@ret:
   612                           	callstack 0
   613   00000C                     ADC_get_conversion_result_blocking@chanel:
   614                           	callstack 0
   615   00000C                     vfpfcnvrt@fp:
   616                           	callstack 0
   617   00000C                     ___xxtofl@arg:
   618                           	callstack 0
   619                           
   620                           ; 4 bytes @ 0xB
   621   00000C                     	ds	1
   622   00000D                     ADC_get_conversion_result_blocking@adc_result:
   623                           	callstack 0
   624   00000D                     vfpfcnvrt@fmt:
   625                           	callstack 0
   626                           
   627                           ; 1 bytes @ 0xC
   628   00000D                     	ds	1
   629   00000E                     lcd_send_bits@ret:
   630                           	callstack 0
   631   00000E                     ADC_get_conversion_result_blocking@ret:
   632                           	callstack 0
   633   00000E                     vfpfcnvrt@ap:
   634                           	callstack 0
   635                           
   636                           ; 1 bytes @ 0xD
   637   00000E                     	ds	1
   638   00000F                     ??_vfpfcnvrt:
   639   00000F                     lcd_send_bits@l_count:
   640                           	callstack 0
   641                           
   642                           ; 1 bytes @ 0xE
   643   00000F                     	ds	1
   644   000010                     ?___flmul:
   645                           	callstack 0
   646   000010                     lcd_send_command@lcd_obj:
   647                           	callstack 0
   648   000010                     lcd_send_char_data@lcd_obj:
   649                           	callstack 0
   650   000010                     vfpfcnvrt@done:
   651                           	callstack 0
   652   000010                     ___flmul@b:
   653                           	callstack 0
   654                           
   655                           ; 4 bytes @ 0xF
   656   000010                     	ds	1
   657   000011                     lcd_send_command@cmd:
   658                           	callstack 0
   659   000011                     lcd_send_char_data@data:
   660                           	callstack 0
   661   000011                     vfpfcnvrt@cp:
   662                           	callstack 0
   663                           
   664                           ; 1 bytes @ 0x10
   665   000011                     	ds	1
   666   000012                     lcd_send_command@l_count:
   667                           	callstack 0
   668   000012                     lcd_send_char_data@ret:
   669                           	callstack 0
   670   000012                     vfpfcnvrt@convarg:
   671                           	callstack 0
   672                           
   673                           ; 4 bytes @ 0x11
   674   000012                     	ds	1
   675   000013                     lcd_send_command@ret:
   676                           	callstack 0
   677   000013                     lcd_send_string_data@lcd_obj:
   678                           	callstack 0
   679                           
   680                           ; 1 bytes @ 0x12
   681   000013                     	ds	1
   682   000014                     lcd_init@lcd_obj:
   683                           	callstack 0
   684   000014                     lcd_set_cursor_position@lcd_obj:
   685                           	callstack 0
   686   000014                     lcd_send_string_data@str:
   687                           	callstack 0
   688   000014                     ___flmul@a:
   689                           	callstack 0
   690                           
   691                           ; 4 bytes @ 0x13
   692   000014                     	ds	1
   693   000015                     ??_lcd_init:
   694   000015                     lcd_set_cursor_position@row:
   695                           	callstack 0
   696                           
   697                           ; 1 bytes @ 0x14
   698   000015                     	ds	1
   699   000016                     lcd_init@l_count:
   700                           	callstack 0
   701   000016                     lcd_send_string_data@ret:
   702                           	callstack 0
   703   000016                     lcd_set_cursor_position@col:
   704                           	callstack 0
   705   000016                     vfpfcnvrt@c:
   706                           	callstack 0
   707                           
   708                           ; 1 bytes @ 0x15
   709   000016                     	ds	1
   710   000017                     ??_lcd_set_cursor_position:
   711   000017                     ?_vfprintf:
   712                           	callstack 0
   713   000017                     lcd_init@ret:
   714                           	callstack 0
   715   000017                     vfprintf@fp:
   716                           	callstack 0
   717                           
   718                           ; 1 bytes @ 0x16
   719   000017                     	ds	1
   720   000018                     ??___flmul:
   721   000018                     vfprintf@fmt:
   722                           	callstack 0
   723                           
   724                           ; 1 bytes @ 0x17
   725   000018                     	ds	1
   726   000019                     lcd_send_string_data_position@lcd_obj:
   727                           	callstack 0
   728   000019                     vfprintf@ap:
   729                           	callstack 0
   730                           
   731                           ; 1 bytes @ 0x18
   732   000019                     	ds	1
   733   00001A                     vfprintf@cfmt:
   734                           	callstack 0
   735   00001A                     lcd_send_string_data_position@str:
   736                           	callstack 0
   737                           
   738                           ; 2 bytes @ 0x19
   739   00001A                     	ds	1
   740   00001B                     ?_sprintf:
   741                           	callstack 0
   742   00001B                     sprintf@s:
   743                           	callstack 0
   744                           
   745                           ; 1 bytes @ 0x1A
   746   00001B                     	ds	1
   747   00001C                     lcd_send_string_data_position@row:
   748                           	callstack 0
   749   00001C                     ___flmul@sign:
   750                           	callstack 0
   751   00001C                     sprintf@fmt:
   752                           	callstack 0
   753                           
   754                           ; 1 bytes @ 0x1B
   755   00001C                     	ds	1
   756   00001D                     lcd_send_string_data_position@col:
   757                           	callstack 0
   758   00001D                     ___flmul@grs:
   759                           	callstack 0
   760                           
   761                           ; 4 bytes @ 0x1C
   762   00001D                     	ds	1
   763   00001E                     lcd_send_string_data_position@ret:
   764                           	callstack 0
   765                           
   766                           ; 1 bytes @ 0x1D
   767   00001E                     	ds	1
   768   00001F                     sprintf@ap:
   769                           	callstack 0
   770                           
   771                           ; 1 bytes @ 0x1E
   772   00001F                     	ds	1
   773   000020                     sprintf@f:
   774                           	callstack 0
   775                           
   776                           ; 12 bytes @ 0x1F
   777   000020                     	ds	1
   778   000021                     ___flmul@aexp:
   779                           	callstack 0
   780                           
   781                           ; 1 bytes @ 0x20
   782   000021                     	ds	1
   783   000022                     ___flmul@bexp:
   784                           	callstack 0
   785                           
   786                           ; 1 bytes @ 0x21
   787   000022                     	ds	1
   788   000023                     ___flmul@prod:
   789                           	callstack 0
   790                           
   791                           ; 4 bytes @ 0x22
   792   000023                     	ds	4
   793   000027                     ___flmul@temp:
   794                           	callstack 0
   795                           
   796                           ; 2 bytes @ 0x26
   797   000027                     	ds	2
   798   000029                     ?___fldiv:
   799                           	callstack 0
   800   000029                     ___fldiv@b:
   801                           	callstack 0
   802                           
   803                           ; 4 bytes @ 0x28
   804   000029                     	ds	3
   805   00002C                     convert_uint16_to_string@value:
   806                           	callstack 0
   807                           
   808                           ; 2 bytes @ 0x2B
   809   00002C                     	ds	1
   810   00002D                     ___fldiv@a:
   811                           	callstack 0
   812                           
   813                           ; 4 bytes @ 0x2C
   814   00002D                     	ds	1
   815   00002E                     convert_uint16_to_string@str:
   816                           	callstack 0
   817                           
   818                           ; 1 bytes @ 0x2D
   819   00002E                     	ds	1
   820   00002F                     
   821                           ; 1 bytes @ 0x2E
   822   00002F                     	ds	2
   823   000031                     ??___fldiv:
   824                           
   825                           ; 1 bytes @ 0x30
   826   000031                     	ds	4
   827   000035                     ___fldiv@rem:
   828                           	callstack 0
   829                           
   830                           ; 4 bytes @ 0x34
   831   000035                     	ds	4
   832   000039                     ___fldiv@sign:
   833                           	callstack 0
   834                           
   835                           ; 1 bytes @ 0x38
   836   000039                     	ds	1
   837   00003A                     ___fldiv@new_exp:
   838                           	callstack 0
   839                           
   840                           ; 2 bytes @ 0x39
   841   00003A                     	ds	2
   842   00003C                     ___fldiv@grs:
   843                           	callstack 0
   844                           
   845                           ; 4 bytes @ 0x3B
   846   00003C                     	ds	4
   847   000040                     ___fldiv@bexp:
   848                           	callstack 0
   849                           
   850                           ; 1 bytes @ 0x3F
   851   000040                     	ds	1
   852   000041                     ___fldiv@aexp:
   853                           	callstack 0
   854                           
   855                           ; 1 bytes @ 0x40
   856   000041                     	ds	1
   857   000042                     ?___fltol:
   858                           	callstack 0
   859   000042                     ___fltol@f1:
   860                           	callstack 0
   861                           
   862                           ; 4 bytes @ 0x41
   863   000042                     	ds	4
   864   000046                     ??___fltol:
   865                           
   866                           ; 1 bytes @ 0x45
   867   000046                     	ds	4
   868   00004A                     ___fltol@sign1:
   869                           	callstack 0
   870                           
   871                           ; 1 bytes @ 0x49
   872   00004A                     	ds	1
   873   00004B                     ___fltol@exp1:
   874                           	callstack 0
   875                           
   876                           ; 1 bytes @ 0x4A
   877   00004B                     	ds	1
   878   00004C                     
   879                           ; 1 bytes @ 0x4B
   880 ;;
   881 ;;Main: autosize = 0, tempsize = 0, incstack = 0, save=0
   882 ;;
   883 ;; *************** function _main *****************
   884 ;; Defined at:
   885 ;;		line 81 in file "application.c"
   886 ;; Parameters:    Size  Location     Type
   887 ;;		None
   888 ;; Auto vars:     Size  Location     Type
   889 ;;		None
   890 ;; Return value:  Size  Location     Type
   891 ;;                  2  1105[None  ] int 
   892 ;; Registers used:
   893 ;;		wreg, fsr0l, fsr0h, fsr1l, fsr1h, fsr2l, fsr2h, status,2, status,0, tblptrl, tblptrh, tblptru, prodl, prodh, cstack
   894 ;; Tracked objects:
   895 ;;		On entry : 0/0
   896 ;;		On exit  : 0/0
   897 ;;		Unchanged: 0/0
   898 ;; Data sizes:     COMRAM   BANK0   BANK1   BANK2   BANK3   BANK4   BANK5   BANK6   BANK7   BANK8   BANK9  BANK10  BANK1
      +1  BANK12  BANK13  BANK14  BANK15
   899 ;;      Params:         0       0       0       0       0       0       0       0       0       0       0       0       
      +0       0       0       0       0
   900 ;;      Locals:         0       0       0       0       0       0       0       0       0       0       0       0       
      +0       0       0       0       0
   901 ;;      Temps:          0       0       0       0       0       0       0       0       0       0       0       0       
      +0       0       0       0       0
   902 ;;      Totals:         0       0       0       0       0       0       0       0       0       0       0       0       
      +0       0       0       0       0
   903 ;;Total ram usage:        0 bytes
   904 ;; Hardware stack levels required when called: 8
   905 ;; This function calls:
   906 ;;		_ADC_get_conversion_result_blocking
   907 ;;		___fldiv
   908 ;;		___flmul
   909 ;;		___fltol
   910 ;;		___xxtofl
   911 ;;		_app_init
   912 ;;		_convert_uint16_to_string
   913 ;;		_lcd_send_string_data_position
   914 ;; This function is called by:
   915 ;;		Startup code after reset
   916 ;; This function uses a non-reentrant model
   917 ;;
   918                           
   919                           	psect	text0
   920   00212E                     __ptext0:
   921                           	callstack 0
   922   00212E                     _main:
   923                           	callstack 23
   924   00212E                     
   925                           ;application.c: 82:     app_init();
   926   00212E  EC7A  F016         	call	_app_init	;wreg free
   927   002132                     
   928                           ;application.c: 83:     ret=lcd_send_string_data_position(&lcd_1,"LM35 Temp Test",1,5);
   929   002132  0E9E               	movlw	low _lcd_1
   930   002134  6E19               	movwf	lcd_send_string_data_position@lcd_obj^0,c
   931   002136  0E20               	movlw	low STR_4
   932   002138  6E1A               	movwf	lcd_send_string_data_position@str^0,c
   933   00213A  501A               	movf	lcd_send_string_data_position@str^0,w,c
   934   00213C  A4D8               	btfss	status,2,c
   935   00213E  0E10               	movlw	high __smallconst
   936   002140  6E1B               	movwf	(lcd_send_string_data_position@str+1)^0,c
   937   002142  0E01               	movlw	1
   938   002144  6E1C               	movwf	lcd_send_string_data_position@row^0,c
   939   002146  0E05               	movlw	5
   940   002148  6E1D               	movwf	lcd_send_string_data_position@col^0,c
   941   00214A  EC4B  F015         	call	_lcd_send_string_data_position	;wreg free
   942   00214E  6E7B               	movwf	_ret^0,c
   943   002150                     
   944                           ;application.c: 85:     ret=lcd_send_string_data_position(&lcd_1,"Temperature = ",2,1);
   945   002150  0E9E               	movlw	low _lcd_1
   946   002152  6E19               	movwf	lcd_send_string_data_position@lcd_obj^0,c
   947   002154  0E11               	movlw	low STR_5
   948   002156  6E1A               	movwf	lcd_send_string_data_position@str^0,c
   949   002158  501A               	movf	lcd_send_string_data_position@str^0,w,c
   950   00215A  A4D8               	btfss	status,2,c
   951   00215C  0E10               	movlw	high __smallconst
   952   00215E  6E1B               	movwf	(lcd_send_string_data_position@str+1)^0,c
   953   002160  0E02               	movlw	2
   954   002162  6E1C               	movwf	lcd_send_string_data_position@row^0,c
   955   002164  0E01               	movlw	1
   956   002166  6E1D               	movwf	lcd_send_string_data_position@col^0,c
   957   002168  EC4B  F015         	call	_lcd_send_string_data_position	;wreg free
   958   00216C  6E7B               	movwf	_ret^0,c
   959   00216E                     l5347:
   960                           
   961                           ;application.c: 87:         ret=ADC_get_conversion_result_blocking(&adc_1,ADC_CHANNEL_AN
      +                          0,&lm35_res);
   962   00216E  0E75               	movlw	low _adc_1
   963   002170  6E0B               	movwf	ADC_get_conversion_result_blocking@adc_obj^0,c
   964   002172  0E00               	movlw	0
   965   002174  6E0C               	movwf	ADC_get_conversion_result_blocking@chanel^0,c
   966   002176  0E6F               	movlw	low _lm35_res
   967   002178  6E0D               	movwf	ADC_get_conversion_result_blocking@adc_result^0,c
   968   00217A  EC76  F014         	call	_ADC_get_conversion_result_blocking	;wreg free
   969   00217E  6E7B               	movwf	_ret^0,c
   970   002180                     
   971                           ;application.c: 88:         lm35_C=(lm35_res*4.88)/10;
   972   002180  0E00               	movlw	0
   973   002182  6E2D               	movwf	___fldiv@a^0,c
   974   002184  0E00               	movlw	0
   975   002186  6E2E               	movwf	(___fldiv@a+1)^0,c
   976   002188  0E20               	movlw	32
   977   00218A  6E2F               	movwf	(___fldiv@a+2)^0,c
   978   00218C  0E41               	movlw	65
   979   00218E  6E30               	movwf	(___fldiv@a+3)^0,c
   980   002190  0EF6               	movlw	246
   981   002192  6E14               	movwf	___flmul@a^0,c
   982   002194  0E28               	movlw	40
   983   002196  6E15               	movwf	(___flmul@a+1)^0,c
   984   002198  0E9C               	movlw	156
   985   00219A  6E16               	movwf	(___flmul@a+2)^0,c
   986   00219C  0E40               	movlw	64
   987   00219E  6E17               	movwf	(___flmul@a+3)^0,c
   988   0021A0  C06F  F002         	movff	_lm35_res,___xxtofl@val
   989   0021A4  C070  F003         	movff	_lm35_res+1,___xxtofl@val+1
   990   0021A8  6A04               	clrf	(___xxtofl@val+2)^0,c
   991   0021AA  6A05               	clrf	(___xxtofl@val+3)^0,c
   992   0021AC  0E00               	movlw	0
   993   0021AE  EC1F  F00E         	call	___xxtofl
   994   0021B2  C002  F010         	movff	?___xxtofl,___flmul@b
   995   0021B6  C003  F011         	movff	?___xxtofl+1,___flmul@b+1
   996   0021BA  C004  F012         	movff	?___xxtofl+2,___flmul@b+2
   997   0021BE  C005  F013         	movff	?___xxtofl+3,___flmul@b+3
   998   0021C2  EC1A  F008         	call	___flmul	;wreg free
   999   0021C6  C010  F029         	movff	?___flmul,___fldiv@b
  1000   0021CA  C011  F02A         	movff	?___flmul+1,___fldiv@b+1
  1001   0021CE  C012  F02B         	movff	?___flmul+2,___fldiv@b+2
  1002   0021D2  C013  F02C         	movff	?___flmul+3,___fldiv@b+3
  1003   0021D6  EC2F  F00A         	call	___fldiv	;wreg free
  1004   0021DA  C029  F042         	movff	?___fldiv,___fltol@f1
  1005   0021DE  C02A  F043         	movff	?___fldiv+1,___fltol@f1+1
  1006   0021E2  C02B  F044         	movff	?___fldiv+2,___fltol@f1+2
  1007   0021E6  C02C  F045         	movff	?___fldiv+3,___fltol@f1+3
  1008   0021EA  EC14  F010         	call	___fltol	;wreg free
  1009   0021EE  C042  F079         	movff	?___fltol,_lm35_C
  1010   0021F2  C043  F07A         	movff	?___fltol+1,_lm35_C+1
  1011   0021F6                     
  1012                           ;application.c: 89:         ret=convert_uint16_to_string(lm35_C,lm35_txt);
  1013   0021F6  C079  F02C         	movff	_lm35_C,convert_uint16_to_string@value
  1014   0021FA  C07A  F02D         	movff	_lm35_C+1,convert_uint16_to_string@value+1
  1015   0021FE  0EC8               	movlw	low _lm35_txt
  1016   002200  6E2E               	movwf	convert_uint16_to_string@str^0,c
  1017   002202  ECE8  F014         	call	_convert_uint16_to_string	;wreg free
  1018   002206  6E7B               	movwf	_ret^0,c
  1019   002208                     
  1020                           ;application.c: 90:         ret=lcd_send_string_data_position(&lcd_1,lm35_txt,2,15);
  1021   002208  0E9E               	movlw	low _lcd_1
  1022   00220A  6E19               	movwf	lcd_send_string_data_position@lcd_obj^0,c
  1023   00220C  0EC8               	movlw	low _lm35_txt
  1024   00220E  6E1A               	movwf	lcd_send_string_data_position@str^0,c
  1025   002210  6A1B               	clrf	(lcd_send_string_data_position@str+1)^0,c
  1026   002212  0E02               	movlw	2
  1027   002214  6E1C               	movwf	lcd_send_string_data_position@row^0,c
  1028   002216  0E0F               	movlw	15
  1029   002218  6E1D               	movwf	lcd_send_string_data_position@col^0,c
  1030   00221A  EC4B  F015         	call	_lcd_send_string_data_position	;wreg free
  1031   00221E  6E7B               	movwf	_ret^0,c
  1032   002220  EFB7  F010         	goto	l5347
  1033   002224  EF07  F000         	goto	start
  1034   002228                     __end_of_main:
  1035                           	callstack 0
  1036                           
  1037 ;; *************** function _lcd_send_string_data_position *****************
  1038 ;; Defined at:
  1039 ;;		line 202 in file "ECU_Layer/Char_LCD/ecu_char_LDC.c"
  1040 ;; Parameters:    Size  Location     Type
  1041 ;;  lcd_obj         1   24[COMRAM] PTR const struct .
  1042 ;;		 -> lcd_1(10), 
  1043 ;;  str             2   25[COMRAM] PTR unsigned char 
  1044 ;;		 -> lm35_txt(7), STR_5(15), STR_4(15), 
  1045 ;;  row             1   27[COMRAM] unsigned char 
  1046 ;;  col             1   28[COMRAM] unsigned char 
  1047 ;; Auto vars:     Size  Location     Type
  1048 ;;  ret             1   29[COMRAM] unsigned char 
  1049 ;; Return value:  Size  Location     Type
  1050 ;;                  1    wreg      unsigned char 
  1051 ;; Registers used:
  1052 ;;		wreg, fsr0l, fsr0h, fsr2l, fsr2h, status,2, status,0, tblptrl, tblptrh, tblptru, prodl, prodh, cstack
  1053 ;; Tracked objects:
  1054 ;;		On entry : 0/0
  1055 ;;		On exit  : 0/0
  1056 ;;		Unchanged: 0/0
  1057 ;; Data sizes:     COMRAM   BANK0   BANK1   BANK2   BANK3   BANK4   BANK5   BANK6   BANK7   BANK8   BANK9  BANK10  BANK1
      +1  BANK12  BANK13  BANK14  BANK15
  1058 ;;      Params:         5       0       0       0       0       0       0       0       0       0       0       0       
      +0       0       0       0       0
  1059 ;;      Locals:         1       0       0       0       0       0       0       0       0       0       0       0       
      +0       0       0       0       0
  1060 ;;      Temps:          0       0       0       0       0       0       0       0       0       0       0       0       
      +0       0       0       0       0
  1061 ;;      Totals:         6       0       0       0       0       0       0       0       0       0       0       0       
      +0       0       0       0       0
  1062 ;;Total ram usage:        6 bytes
  1063 ;; Hardware stack levels used: 1
  1064 ;; Hardware stack levels required when called: 6
  1065 ;; This function calls:
  1066 ;;		_lcd_send_string_data
  1067 ;;		_lcd_set_cursor_position
  1068 ;; This function is called by:
  1069 ;;		_main
  1070 ;; This function uses a non-reentrant model
  1071 ;;
  1072                           
  1073                           	psect	text1
  1074   002A96                     __ptext1:
  1075                           	callstack 0
  1076   002A96                     _lcd_send_string_data_position:
  1077                           	callstack 24
  1078   002A96                     
  1079                           ;ECU_Layer/Char_LCD/ecu_char_LDC.c: 204:     if(((void*)0) == lcd_obj)
  1080   002A96  5019               	movf	lcd_send_string_data_position@lcd_obj^0,w,c
  1081   002A98  A4D8               	btfss	status,2,c
  1082   002A9A  EF51  F015         	goto	u3161
  1083   002A9E  EF53  F015         	goto	u3160
  1084   002AA2                     u3161:
  1085   002AA2  EF57  F015         	goto	l4437
  1086   002AA6                     u3160:
  1087   002AA6                     
  1088                           ;ECU_Layer/Char_LCD/ecu_char_LDC.c: 205:     {;ECU_Layer/Char_LCD/ecu_char_LDC.c: 206:  
      +                                 ret=((Std_RetrunType) 0x00);
  1089   002AA6  0E00               	movlw	0
  1090   002AA8  6E1E               	movwf	lcd_send_string_data_position@ret^0,c
  1091                           
  1092                           ;ECU_Layer/Char_LCD/ecu_char_LDC.c: 207:     }
  1093   002AAA  EF68  F015         	goto	l4441
  1094   002AAE                     l4437:
  1095   002AAE  C019  F014         	movff	lcd_send_string_data_position@lcd_obj,lcd_set_cursor_position@lcd_obj
  1096   002AB2  C01C  F015         	movff	lcd_send_string_data_position@row,lcd_set_cursor_position@row
  1097   002AB6  C01D  F016         	movff	lcd_send_string_data_position@col,lcd_set_cursor_position@col
  1098   002ABA  ECF3  F012         	call	_lcd_set_cursor_position	;wreg free
  1099   002ABE                     
  1100                           ;ECU_Layer/Char_LCD/ecu_char_LDC.c: 211:         ret=lcd_send_string_data(lcd_obj,str);
  1101   002ABE  C019  F013         	movff	lcd_send_string_data_position@lcd_obj,lcd_send_string_data@lcd_obj
  1102   002AC2  C01A  F014         	movff	lcd_send_string_data_position@str,lcd_send_string_data@str
  1103   002AC6  C01B  F015         	movff	lcd_send_string_data_position@str+1,lcd_send_string_data@str+1
  1104   002ACA  ECD4  F013         	call	_lcd_send_string_data	;wreg free
  1105   002ACE  6E1E               	movwf	lcd_send_string_data_position@ret^0,c
  1106   002AD0                     l4441:
  1107                           
  1108                           ;ECU_Layer/Char_LCD/ecu_char_LDC.c: 216:     return ret;
  1109   002AD0  501E               	movf	lcd_send_string_data_position@ret^0,w,c
  1110   002AD2  0012               	return		;funcret
  1111   002AD4                     __end_of_lcd_send_string_data_position:
  1112                           	callstack 0
  1113                           
  1114 ;; *************** function _lcd_set_cursor_position *****************
  1115 ;; Defined at:
  1116 ;;		line 227 in file "ECU_Layer/Char_LCD/ecu_char_LDC.c"
  1117 ;; Parameters:    Size  Location     Type
  1118 ;;  lcd_obj         1   19[COMRAM] PTR const struct .
  1119 ;;		 -> lcd_1(10), 
  1120 ;;  row             1   20[COMRAM] unsigned char 
  1121 ;;  col             1   21[COMRAM] unsigned char 
  1122 ;; Auto vars:     Size  Location     Type
  1123 ;;  ret             1    0        unsigned char 
  1124 ;; Return value:  Size  Location     Type
  1125 ;;                  1    wreg      unsigned char 
  1126 ;; Registers used:
  1127 ;;		wreg, fsr2l, fsr2h, status,2, status,0, prodl, prodh, cstack
  1128 ;; Tracked objects:
  1129 ;;		On entry : 0/0
  1130 ;;		On exit  : 0/0
  1131 ;;		Unchanged: 0/0
  1132 ;; Data sizes:     COMRAM   BANK0   BANK1   BANK2   BANK3   BANK4   BANK5   BANK6   BANK7   BANK8   BANK9  BANK10  BANK1
      +1  BANK12  BANK13  BANK14  BANK15
  1133 ;;      Params:         3       0       0       0       0       0       0       0       0       0       0       0       
      +0       0       0       0       0
  1134 ;;      Locals:         0       0       0       0       0       0       0       0       0       0       0       0       
      +0       0       0       0       0
  1135 ;;      Temps:          2       0       0       0       0       0       0       0       0       0       0       0       
      +0       0       0       0       0
  1136 ;;      Totals:         5       0       0       0       0       0       0       0       0       0       0       0       
      +0       0       0       0       0
  1137 ;;Total ram usage:        5 bytes
  1138 ;; Hardware stack levels used: 1
  1139 ;; Hardware stack levels required when called: 5
  1140 ;; This function calls:
  1141 ;;		_lcd_send_command
  1142 ;; This function is called by:
  1143 ;;		_lcd_send_string_data_position
  1144 ;;		_lcd_send_char_data_position
  1145 ;; This function uses a non-reentrant model
  1146 ;;
  1147                           
  1148                           	psect	text2
  1149   0025E6                     __ptext2:
  1150                           	callstack 0
  1151   0025E6                     _lcd_set_cursor_position:
  1152                           	callstack 24
  1153   0025E6                     
  1154                           ;ECU_Layer/Char_LCD/ecu_char_LDC.c: 229:     if(((void*)0) == lcd_obj)
  1155   0025E6  5014               	movf	lcd_set_cursor_position@lcd_obj^0,w,c
  1156   0025E8  A4D8               	btfss	status,2,c
  1157   0025EA  EFF9  F012         	goto	u3031
  1158   0025EE  EFFB  F012         	goto	u3030
  1159   0025F2                     u3031:
  1160   0025F2  EFFD  F012         	goto	l4303
  1161   0025F6                     u3030:
  1162   0025F6                     
  1163                           ;ECU_Layer/Char_LCD/ecu_char_LDC.c: 232:     }
  1164   0025F6  EF41  F013         	goto	l4317
  1165   0025FA                     l4303:
  1166                           
  1167                           ;ECU_Layer/Char_LCD/ecu_char_LDC.c: 234:     {;ECU_Layer/Char_LCD/ecu_char_LDC.c: 235:  
      +                                 col--;
  1168   0025FA  0616               	decf	lcd_set_cursor_position@col^0,f,c
  1169                           
  1170                           ;ECU_Layer/Char_LCD/ecu_char_LDC.c: 236:         switch(row)
  1171   0025FC  EF24  F013         	goto	l4315
  1172   002600                     l4305:
  1173   002600  C014  F010         	movff	lcd_set_cursor_position@lcd_obj,lcd_send_command@lcd_obj
  1174   002604  5016               	movf	lcd_set_cursor_position@col^0,w,c
  1175   002606  0F80               	addlw	128
  1176   002608  6E11               	movwf	lcd_send_command@cmd^0,c
  1177   00260A  ECC5  F014         	call	_lcd_send_command	;wreg free
  1178   00260E  EF41  F013         	goto	l4317
  1179   002612                     l4307:
  1180   002612  C014  F010         	movff	lcd_set_cursor_position@lcd_obj,lcd_send_command@lcd_obj
  1181   002616  5016               	movf	lcd_set_cursor_position@col^0,w,c
  1182   002618  0FC0               	addlw	192
  1183   00261A  6E11               	movwf	lcd_send_command@cmd^0,c
  1184   00261C  ECC5  F014         	call	_lcd_send_command	;wreg free
  1185   002620  EF41  F013         	goto	l4317
  1186   002624                     l4309:
  1187   002624  C014  F010         	movff	lcd_set_cursor_position@lcd_obj,lcd_send_command@lcd_obj
  1188   002628  5016               	movf	lcd_set_cursor_position@col^0,w,c
  1189   00262A  0F94               	addlw	148
  1190   00262C  6E11               	movwf	lcd_send_command@cmd^0,c
  1191   00262E  ECC5  F014         	call	_lcd_send_command	;wreg free
  1192   002632  EF41  F013         	goto	l4317
  1193   002636                     l4311:
  1194   002636  C014  F010         	movff	lcd_set_cursor_position@lcd_obj,lcd_send_command@lcd_obj
  1195   00263A  5016               	movf	lcd_set_cursor_position@col^0,w,c
  1196   00263C  0FD4               	addlw	212
  1197   00263E  6E11               	movwf	lcd_send_command@cmd^0,c
  1198   002640  ECC5  F014         	call	_lcd_send_command	;wreg free
  1199   002644  EF41  F013         	goto	l4317
  1200   002648                     l4315:
  1201   002648  5015               	movf	lcd_set_cursor_position@row^0,w,c
  1202   00264A  6E17               	movwf	??_lcd_set_cursor_position^0,c
  1203   00264C  6A18               	clrf	(??_lcd_set_cursor_position+1)^0,c
  1204                           
  1205                           ; Switch on 2 bytes has been partitioned into a top level switch of size 1, and 1 sub-sw
      +                          itches
  1206                           ; Switch size 1, requested type "simple"
  1207                           ; Number of cases is 1, Range of values is 0 to 0
  1208                           ; switch strategies available:
  1209                           ; Name         Instructions Cycles
  1210                           ; simple_byte            4     3 (average)
  1211                           ;	Chosen strategy is simple_byte
  1212   00264E  5018               	movf	(??_lcd_set_cursor_position+1)^0,w,c
  1213   002650  0A00               	xorlw	0	; case 0
  1214   002652  B4D8               	btfsc	status,2,c
  1215   002654  EF2E  F013         	goto	l5383
  1216   002658  EF41  F013         	goto	l4317
  1217   00265C                     l5383:
  1218                           
  1219                           ; Switch size 1, requested type "simple"
  1220                           ; Number of cases is 4, Range of values is 1 to 4
  1221                           ; switch strategies available:
  1222                           ; Name         Instructions Cycles
  1223                           ; simple_byte           13     7 (average)
  1224                           ;	Chosen strategy is simple_byte
  1225   00265C  5017               	movf	??_lcd_set_cursor_position^0,w,c
  1226   00265E  0A01               	xorlw	1	; case 1
  1227   002660  B4D8               	btfsc	status,2,c
  1228   002662  EF00  F013         	goto	l4305
  1229   002666  0A03               	xorlw	3	; case 2
  1230   002668  B4D8               	btfsc	status,2,c
  1231   00266A  EF09  F013         	goto	l4307
  1232   00266E  0A01               	xorlw	1	; case 3
  1233   002670  B4D8               	btfsc	status,2,c
  1234   002672  EF12  F013         	goto	l4309
  1235   002676  0A07               	xorlw	7	; case 4
  1236   002678  B4D8               	btfsc	status,2,c
  1237   00267A  EF1B  F013         	goto	l4311
  1238   00267E  EF41  F013         	goto	l4317
  1239   002682                     l4317:
  1240                           
  1241                           ;ECU_Layer/Char_LCD/ecu_char_LDC.c: 247:     return ret;
  1242   002682  0E00               	movlw	0
  1243   002684  0012               	return		;funcret
  1244   002686                     __end_of_lcd_set_cursor_position:
  1245                           	callstack 0
  1246                           
  1247 ;; *************** function _lcd_send_string_data *****************
  1248 ;; Defined at:
  1249 ;;		line 176 in file "ECU_Layer/Char_LCD/ecu_char_LDC.c"
  1250 ;; Parameters:    Size  Location     Type
  1251 ;;  lcd_obj         1   18[COMRAM] PTR const struct .
  1252 ;;		 -> lcd_1(10), 
  1253 ;;  str             2   19[COMRAM] PTR unsigned char 
  1254 ;;		 -> lm35_txt(7), STR_5(15), STR_4(15), 
  1255 ;; Auto vars:     Size  Location     Type
  1256 ;;  ret             1   21[COMRAM] unsigned char 
  1257 ;; Return value:  Size  Location     Type
  1258 ;;                  1    wreg      unsigned char 
  1259 ;; Registers used:
  1260 ;;		wreg, fsr0l, fsr0h, fsr2l, fsr2h, status,2, status,0, tblptrl, tblptrh, tblptru, prodl, prodh, cstack
  1261 ;; Tracked objects:
  1262 ;;		On entry : 0/0
  1263 ;;		On exit  : 0/0
  1264 ;;		Unchanged: 0/0
  1265 ;; Data sizes:     COMRAM   BANK0   BANK1   BANK2   BANK3   BANK4   BANK5   BANK6   BANK7   BANK8   BANK9  BANK10  BANK1
      +1  BANK12  BANK13  BANK14  BANK15
  1266 ;;      Params:         3       0       0       0       0       0       0       0       0       0       0       0       
      +0       0       0       0       0
  1267 ;;      Locals:         1       0       0       0       0       0       0       0       0       0       0       0       
      +0       0       0       0       0
  1268 ;;      Temps:          0       0       0       0       0       0       0       0       0       0       0       0       
      +0       0       0       0       0
  1269 ;;      Totals:         4       0       0       0       0       0       0       0       0       0       0       0       
      +0       0       0       0       0
  1270 ;;Total ram usage:        4 bytes
  1271 ;; Hardware stack levels used: 1
  1272 ;; Hardware stack levels required when called: 5
  1273 ;; This function calls:
  1274 ;;		_lcd_send_char_data
  1275 ;; This function is called by:
  1276 ;;		_lcd_send_string_data_position
  1277 ;; This function uses a non-reentrant model
  1278 ;;
  1279                           
  1280                           	psect	text3
  1281   0027A8                     __ptext3:
  1282                           	callstack 0
  1283   0027A8                     _lcd_send_string_data:
  1284                           	callstack 24
  1285   0027A8                     
  1286                           ;ECU_Layer/Char_LCD/ecu_char_LDC.c: 177:     Std_RetrunType ret=((Std_RetrunType) 0x00);
  1287   0027A8  0E00               	movlw	0
  1288   0027AA  6E16               	movwf	lcd_send_string_data@ret^0,c
  1289                           
  1290                           ;ECU_Layer/Char_LCD/ecu_char_LDC.c: 178:     if(((void*)0) == lcd_obj)
  1291   0027AC  5013               	movf	lcd_send_string_data@lcd_obj^0,w,c
  1292   0027AE  A4D8               	btfss	status,2,c
  1293   0027B0  EFDC  F013         	goto	u3041
  1294   0027B4  EFDE  F013         	goto	u3040
  1295   0027B8                     u3041:
  1296   0027B8  EFFB  F013         	goto	l4333
  1297   0027BC                     u3040:
  1298   0027BC                     
  1299                           ;ECU_Layer/Char_LCD/ecu_char_LDC.c: 179:     {;ECU_Layer/Char_LCD/ecu_char_LDC.c: 180:  
      +                                 ret=((Std_RetrunType) 0x00);
  1300   0027BC  0E00               	movlw	0
  1301   0027BE  6E16               	movwf	lcd_send_string_data@ret^0,c
  1302                           
  1303                           ;ECU_Layer/Char_LCD/ecu_char_LDC.c: 181:     }
  1304   0027C0  EF14  F014         	goto	l4335
  1305   0027C4                     l4329:
  1306                           
  1307                           ;ECU_Layer/Char_LCD/ecu_char_LDC.c: 185:         {;ECU_Layer/Char_LCD/ecu_char_LDC.c: 18
      +                          6:             ret=lcd_send_char_data(lcd_obj,*str++);
  1308   0027C4  C013  F010         	movff	lcd_send_string_data@lcd_obj,lcd_send_char_data@lcd_obj
  1309   0027C8  C014  FFF6         	movff	lcd_send_string_data@str,tblptrl
  1310   0027CC  C015  FFF7         	movff	lcd_send_string_data@str+1,tblptrh
  1311   0027D0  0E00               	movlw	low (__smallconst shr (0+16))
  1312   0027D2  6EF8               	movwf	tblptru,c
  1313   0027D4  0E0F               	movlw	(high __ramtop+-1)
  1314   0027D6  64F7               	cpfsgt	tblptrh,c
  1315   0027D8  D003               	bra	u3057
  1316   0027DA  0008               	tblrd		*
  1317   0027DC  50F5               	movf	tablat,w,c
  1318   0027DE  D005               	bra	u3050
  1319   0027E0                     u3057:
  1320   0027E0  CFF6 FFE9          	movff	tblptrl,fsr0l
  1321   0027E4  CFF7 FFEA          	movff	tblptrh,fsr0h
  1322   0027E8  50EF               	movf	indf0,w,c
  1323   0027EA                     u3050:
  1324   0027EA  6E11               	movwf	lcd_send_char_data@data^0,c
  1325   0027EC  EC0A  F015         	call	_lcd_send_char_data	;wreg free
  1326   0027F0  6E16               	movwf	lcd_send_string_data@ret^0,c
  1327   0027F2  4A14               	infsnz	lcd_send_string_data@str^0,f,c
  1328   0027F4  2A15               	incf	(lcd_send_string_data@str+1)^0,f,c
  1329   0027F6                     l4333:
  1330                           
  1331                           ;ECU_Layer/Char_LCD/ecu_char_LDC.c: 184:         while(*str != '\0')
  1332   0027F6  C014  FFF6         	movff	lcd_send_string_data@str,tblptrl
  1333   0027FA  C015  FFF7         	movff	lcd_send_string_data@str+1,tblptrh
  1334   0027FE  0E00               	movlw	low (__smallconst shr (0+16))
  1335   002800  6EF8               	movwf	tblptru,c
  1336   002802  0E0F               	movlw	(high __ramtop+-1)
  1337   002804  64F7               	cpfsgt	tblptrh,c
  1338   002806  D003               	bra	u3067
  1339   002808  0008               	tblrd		*
  1340   00280A  50F5               	movf	tablat,w,c
  1341   00280C  D005               	bra	u3060
  1342   00280E                     u3067:
  1343   00280E  CFF6 FFE9          	movff	tblptrl,fsr0l
  1344   002812  CFF7 FFEA          	movff	tblptrh,fsr0h
  1345   002816  50EF               	movf	indf0,w,c
  1346   002818                     u3060:
  1347   002818  0900               	iorlw	0
  1348   00281A  A4D8               	btfss	status,2,c
  1349   00281C  EF12  F014         	goto	u3071
  1350   002820  EF14  F014         	goto	u3070
  1351   002824                     u3071:
  1352   002824  EFE2  F013         	goto	l4329
  1353   002828                     u3070:
  1354   002828                     l4335:
  1355                           
  1356                           ;ECU_Layer/Char_LCD/ecu_char_LDC.c: 190:     return ret;
  1357   002828  5016               	movf	lcd_send_string_data@ret^0,w,c
  1358   00282A  0012               	return		;funcret
  1359   00282C                     __end_of_lcd_send_string_data:
  1360                           	callstack 0
  1361                           
  1362 ;; *************** function _lcd_send_char_data *****************
  1363 ;; Defined at:
  1364 ;;		line 117 in file "ECU_Layer/Char_LCD/ecu_char_LDC.c"
  1365 ;; Parameters:    Size  Location     Type
  1366 ;;  lcd_obj         1   15[COMRAM] PTR const struct .
  1367 ;;		 -> lcd_1(10), 
  1368 ;;  data            1   16[COMRAM] unsigned char 
  1369 ;; Auto vars:     Size  Location     Type
  1370 ;;  ret             1   17[COMRAM] unsigned char 
  1371 ;; Return value:  Size  Location     Type
  1372 ;;                  1    wreg      unsigned char 
  1373 ;; Registers used:
  1374 ;;		wreg, fsr2l, fsr2h, status,2, status,0, prodl, prodh, cstack
  1375 ;; Tracked objects:
  1376 ;;		On entry : 0/0
  1377 ;;		On exit  : 0/0
  1378 ;;		Unchanged: 0/0
  1379 ;; Data sizes:     COMRAM   BANK0   BANK1   BANK2   BANK3   BANK4   BANK5   BANK6   BANK7   BANK8   BANK9  BANK10  BANK1
      +1  BANK12  BANK13  BANK14  BANK15
  1380 ;;      Params:         2       0       0       0       0       0       0       0       0       0       0       0       
      +0       0       0       0       0
  1381 ;;      Locals:         1       0       0       0       0       0       0       0       0       0       0       0       
      +0       0       0       0       0
  1382 ;;      Temps:          0       0       0       0       0       0       0       0       0       0       0       0       
      +0       0       0       0       0
  1383 ;;      Totals:         3       0       0       0       0       0       0       0       0       0       0       0       
      +0       0       0       0       0
  1384 ;;Total ram usage:        3 bytes
  1385 ;; Hardware stack levels used: 1
  1386 ;; Hardware stack levels required when called: 4
  1387 ;; This function calls:
  1388 ;;		_gpio_pin_write
  1389 ;;		_lcd_send_bits
  1390 ;;		_lcd_send_enable_signal
  1391 ;; This function is called by:
  1392 ;;		_lcd_send_string_data
  1393 ;;		_lcd_send_char_data_position
  1394 ;;		_lcd_send_custom_char
  1395 ;; This function uses a non-reentrant model
  1396 ;;
  1397                           
  1398                           	psect	text4
  1399   002A14                     __ptext4:
  1400                           	callstack 0
  1401   002A14                     _lcd_send_char_data:
  1402                           	callstack 24
  1403   002A14                     
  1404                           ;ECU_Layer/Char_LCD/ecu_char_LDC.c: 119:     if(((void*)0) == lcd_obj)
  1405   002A14  5010               	movf	lcd_send_char_data@lcd_obj^0,w,c
  1406   002A16  A4D8               	btfss	status,2,c
  1407   002A18  EF10  F015         	goto	u2951
  1408   002A1C  EF12  F015         	goto	u2950
  1409   002A20                     u2951:
  1410   002A20  EF16  F015         	goto	l4191
  1411   002A24                     u2950:
  1412   002A24                     
  1413                           ;ECU_Layer/Char_LCD/ecu_char_LDC.c: 120:     {;ECU_Layer/Char_LCD/ecu_char_LDC.c: 121:  
      +                                 ret=((Std_RetrunType) 0x00);
  1414   002A24  0E00               	movlw	0
  1415   002A26  6E12               	movwf	lcd_send_char_data@ret^0,c
  1416                           
  1417                           ;ECU_Layer/Char_LCD/ecu_char_LDC.c: 122:     }
  1418   002A28  EF29  F015         	goto	l4193
  1419   002A2C                     l4191:
  1420                           
  1421                           ;ECU_Layer/Char_LCD/ecu_char_LDC.c: 124:     {;ECU_Layer/Char_LCD/ecu_char_LDC.c: 135:  
      +                                     ret=gpio_pin_write(&(lcd_obj->rs_pin),GPIO_STATE_HIGH);
  1422   002A2C  C010  F002         	movff	lcd_send_char_data@lcd_obj,gpio_pin_write@pin_confg
  1423   002A30  0E01               	movlw	1
  1424   002A32  6E03               	movwf	gpio_pin_write@pin_state^0,c
  1425   002A34  EC8C  F00F         	call	_gpio_pin_write	;wreg free
  1426   002A38  6E12               	movwf	lcd_send_char_data@ret^0,c
  1427                           
  1428                           ;ECU_Layer/Char_LCD/ecu_char_LDC.c: 136:             ret=lcd_send_bits(lcd_obj,data);
  1429   002A3A  C010  F00A         	movff	lcd_send_char_data@lcd_obj,lcd_send_bits@lcd_obj
  1430   002A3E  C011  F00B         	movff	lcd_send_char_data@data,lcd_send_bits@data_cmd
  1431   002A42  ECA0  F014         	call	_lcd_send_bits	;wreg free
  1432   002A46  6E12               	movwf	lcd_send_char_data@ret^0,c
  1433                           
  1434                           ;ECU_Layer/Char_LCD/ecu_char_LDC.c: 137:             ret=lcd_send_enable_signal(lcd_obj)
      +                          ;
  1435   002A48  C010  F00A         	movff	lcd_send_char_data@lcd_obj,lcd_send_enable_signal@lcd_obj
  1436   002A4C  EC22  F016         	call	_lcd_send_enable_signal	;wreg free
  1437   002A50  6E12               	movwf	lcd_send_char_data@ret^0,c
  1438   002A52                     l4193:
  1439                           
  1440                           ;ECU_Layer/Char_LCD/ecu_char_LDC.c: 141:     return ret;
  1441   002A52  5012               	movf	lcd_send_char_data@ret^0,w,c
  1442   002A54  0012               	return		;funcret
  1443   002A56                     __end_of_lcd_send_char_data:
  1444                           	callstack 0
  1445                           
  1446 ;; *************** function _convert_uint16_to_string *****************
  1447 ;; Defined at:
  1448 ;;		line 362 in file "ECU_Layer/Char_LCD/ecu_char_LDC.c"
  1449 ;; Parameters:    Size  Location     Type
  1450 ;;  value           2   43[COMRAM] unsigned short 
  1451 ;;  str             1   45[COMRAM] PTR unsigned char 
  1452 ;;		 -> lm35_txt(7), 
  1453 ;; Auto vars:     Size  Location     Type
  1454 ;;  ret             1    0        unsigned char 
  1455 ;; Return value:  Size  Location     Type
  1456 ;;                  1    wreg      unsigned char 
  1457 ;; Registers used:
  1458 ;;		wreg, fsr1l, fsr1h, fsr2l, fsr2h, status,2, status,0, tblptrl, tblptrh, tblptru, cstack
  1459 ;; Tracked objects:
  1460 ;;		On entry : 0/0
  1461 ;;		On exit  : 0/0
  1462 ;;		Unchanged: 0/0
  1463 ;; Data sizes:     COMRAM   BANK0   BANK1   BANK2   BANK3   BANK4   BANK5   BANK6   BANK7   BANK8   BANK9  BANK10  BANK1
      +1  BANK12  BANK13  BANK14  BANK15
  1464 ;;      Params:         3       0       0       0       0       0       0       0       0       0       0       0       
      +0       0       0       0       0
  1465 ;;      Locals:         0       0       0       0       0       0       0       0       0       0       0       0       
      +0       0       0       0       0
  1466 ;;      Temps:          0       0       0       0       0       0       0       0       0       0       0       0       
      +0       0       0       0       0
  1467 ;;      Totals:         3       0       0       0       0       0       0       0       0       0       0       0       
      +0       0       0       0       0
  1468 ;;Total ram usage:        3 bytes
  1469 ;; Hardware stack levels used: 1
  1470 ;; Hardware stack levels required when called: 7
  1471 ;; This function calls:
  1472 ;;		_memset
  1473 ;;		_sprintf
  1474 ;; This function is called by:
  1475 ;;		_main
  1476 ;; This function uses a non-reentrant model
  1477 ;;
  1478                           
  1479                           	psect	text5
  1480   0029D0                     __ptext5:
  1481                           	callstack 0
  1482   0029D0                     _convert_uint16_to_string:
  1483                           	callstack 23
  1484   0029D0                     
  1485                           ;ECU_Layer/Char_LCD/ecu_char_LDC.c: 364:     if(((void*)0) == str)
  1486   0029D0  502E               	movf	convert_uint16_to_string@str^0,w,c
  1487   0029D2  A4D8               	btfss	status,2,c
  1488   0029D4  EFEE  F014         	goto	u3171
  1489   0029D8  EFF0  F014         	goto	u3170
  1490   0029DC                     u3171:
  1491   0029DC  EFF2  F014         	goto	l4449
  1492   0029E0                     u3170:
  1493   0029E0                     
  1494                           ;ECU_Layer/Char_LCD/ecu_char_LDC.c: 367:     }
  1495   0029E0  EF08  F015         	goto	l4453
  1496   0029E4                     l4449:
  1497                           
  1498                           ;ECU_Layer/Char_LCD/ecu_char_LDC.c: 369:     {;ECU_Layer/Char_LCD/ecu_char_LDC.c: 371:  
      +                                 memset(str,'\0',6);
  1499   0029E4  C02E  F002         	movff	convert_uint16_to_string@str,memset@dest
  1500   0029E8  0E00               	movlw	0
  1501   0029EA  6E04               	movwf	(memset@c+1)^0,c
  1502   0029EC  0E00               	movlw	0
  1503   0029EE  6E03               	movwf	memset@c^0,c
  1504   0029F0  0E00               	movlw	0
  1505   0029F2  6E06               	movwf	(memset@n+1)^0,c
  1506   0029F4  0E06               	movlw	6
  1507   0029F6  6E05               	movwf	memset@n^0,c
  1508   0029F8  ECF6  F015         	call	_memset	;wreg free
  1509   0029FC                     
  1510                           ;ECU_Layer/Char_LCD/ecu_char_LDC.c: 372:         sprintf(str,"%i",value);
  1511   0029FC  C02E  F01B         	movff	convert_uint16_to_string@str,sprintf@s
  1512   002A00  0E2F               	movlw	low STR_1
  1513   002A02  6E1C               	movwf	sprintf@fmt^0,c
  1514   002A04  C02C  F01D         	movff	convert_uint16_to_string@value,?_sprintf+2
  1515   002A08  C02D  F01E         	movff	convert_uint16_to_string@value+1,?_sprintf+3
  1516   002A0C  ECC2  F015         	call	_sprintf	;wreg free
  1517   002A10                     l4453:
  1518                           
  1519                           ;ECU_Layer/Char_LCD/ecu_char_LDC.c: 375:     return ret;
  1520   002A10  0E00               	movlw	0
  1521   002A12  0012               	return		;funcret
  1522   002A14                     __end_of_convert_uint16_to_string:
  1523                           	callstack 0
  1524                           
  1525 ;; *************** function _sprintf *****************
  1526 ;; Defined at:
  1527 ;;		line 9 in file "C:\Program Files\Microchip\xc8\v2.45\pic\sources\c99\common\nf_sprintf.c"
  1528 ;; Parameters:    Size  Location     Type
  1529 ;;  s               1   26[COMRAM] PTR unsigned char 
  1530 ;;		 -> lm35_txt(7), 
  1531 ;;  fmt             1   27[COMRAM] PTR const unsigned char 
  1532 ;;		 -> STR_3(3), STR_2(3), STR_1(3), 
  1533 ;; Auto vars:     Size  Location     Type
  1534 ;;  f              12   31[COMRAM] struct _IO_FILE
  1535 ;;  ret             2    0        int 
  1536 ;;  ap              1   30[COMRAM] PTR void [1]
  1537 ;;		 -> ?_sprintf(2), 
  1538 ;; Return value:  Size  Location     Type
  1539 ;;                  2   26[COMRAM] int 
  1540 ;; Registers used:
  1541 ;;		wreg, fsr1l, fsr1h, fsr2l, fsr2h, status,2, status,0, tblptrl, tblptrh, tblptru, cstack
  1542 ;; Tracked objects:
  1543 ;;		On entry : 0/0
  1544 ;;		On exit  : 0/0
  1545 ;;		Unchanged: 0/0
  1546 ;; Data sizes:     COMRAM   BANK0   BANK1   BANK2   BANK3   BANK4   BANK5   BANK6   BANK7   BANK8   BANK9  BANK10  BANK1
      +1  BANK12  BANK13  BANK14  BANK15
  1547 ;;      Params:         4       0       0       0       0       0       0       0       0       0       0       0       
      +0       0       0       0       0
  1548 ;;      Locals:        13       0       0       0       0       0       0       0       0       0       0       0       
      +0       0       0       0       0
  1549 ;;      Temps:          0       0       0       0       0       0       0       0       0       0       0       0       
      +0       0       0       0       0
  1550 ;;      Totals:        17       0       0       0       0       0       0       0       0       0       0       0       
      +0       0       0       0       0
  1551 ;;Total ram usage:       17 bytes
  1552 ;; Hardware stack levels used: 1
  1553 ;; Hardware stack levels required when called: 6
  1554 ;; This function calls:
  1555 ;;		_vfprintf
  1556 ;; This function is called by:
  1557 ;;		_convert_uint16_to_string
  1558 ;;		_convert_uint8_to_string
  1559 ;;		_convert_uint32_to_string
  1560 ;; This function uses a non-reentrant model
  1561 ;;
  1562                           
  1563                           	psect	text6
  1564   002B84                     __ptext6:
  1565                           	callstack 0
  1566   002B84                     _sprintf:
  1567                           	callstack 23
  1568   002B84  0E1D               	movlw	low (?_sprintf+2)
  1569   002B86  6E1F               	movwf	sprintf@ap^0,c
  1570   002B88  C01B  F020         	movff	sprintf@s,sprintf@f
  1571   002B8C  0E00               	movlw	0
  1572   002B8E  6E24               	movwf	(sprintf@f+4)^0,c
  1573   002B90  0E00               	movlw	0
  1574   002B92  6E23               	movwf	(sprintf@f+3)^0,c
  1575   002B94  0E00               	movlw	0
  1576   002B96  6E2B               	movwf	(sprintf@f+11)^0,c
  1577   002B98  0E00               	movlw	0
  1578   002B9A  6E2A               	movwf	(sprintf@f+10)^0,c
  1579   002B9C  0E20               	movlw	low sprintf@f
  1580   002B9E  6E17               	movwf	vfprintf@fp^0,c
  1581   002BA0  C01C  F018         	movff	sprintf@fmt,vfprintf@fmt
  1582   002BA4  0E1F               	movlw	low sprintf@ap
  1583   002BA6  6E19               	movwf	vfprintf@ap^0,c
  1584   002BA8  EC2B  F015         	call	_vfprintf	;wreg free
  1585   002BAC  501B               	movf	sprintf@s^0,w,c
  1586   002BAE  2423               	addwf	(sprintf@f+3)^0,w,c
  1587   002BB0  6ED9               	movwf	fsr2l,c
  1588   002BB2  6ADA               	clrf	fsr2h,c
  1589   002BB4  6ADF               	clrf	indf2,c
  1590   002BB6  0012               	return		;funcret
  1591   002BB8                     __end_of_sprintf:
  1592                           	callstack 0
  1593                           
  1594 ;; *************** function _vfprintf *****************
  1595 ;; Defined at:
  1596 ;;		line 1817 in file "C:\Program Files\Microchip\xc8\v2.45\pic\sources\c99\common\doprnt.c"
  1597 ;; Parameters:    Size  Location     Type
  1598 ;;  fp              1   22[COMRAM] PTR struct _IO_FILE
  1599 ;;		 -> sprintf@f(12), 
  1600 ;;  fmt             1   23[COMRAM] PTR const unsigned char 
  1601 ;;		 -> STR_3(3), STR_2(3), STR_1(3), 
  1602 ;;  ap              1   24[COMRAM] PTR PTR void 
  1603 ;;		 -> sprintf@ap(1), 
  1604 ;; Auto vars:     Size  Location     Type
  1605 ;;  cfmt            1   25[COMRAM] PTR unsigned char 
  1606 ;;		 -> STR_3(3), STR_2(3), STR_1(3), 
  1607 ;; Return value:  Size  Location     Type
  1608 ;;                  2   22[COMRAM] int 
  1609 ;; Registers used:
  1610 ;;		wreg, fsr1l, fsr1h, fsr2l, fsr2h, status,2, status,0, tblptrl, tblptrh, tblptru, cstack
  1611 ;; Tracked objects:
  1612 ;;		On entry : 0/0
  1613 ;;		On exit  : 0/0
  1614 ;;		Unchanged: 0/0
  1615 ;; Data sizes:     COMRAM   BANK0   BANK1   BANK2   BANK3   BANK4   BANK5   BANK6   BANK7   BANK8   BANK9  BANK10  BANK1
      +1  BANK12  BANK13  BANK14  BANK15
  1616 ;;      Params:         3       0       0       0       0       0       0       0       0       0       0       0       
      +0       0       0       0       0
  1617 ;;      Locals:         1       0       0       0       0       0       0       0       0       0       0       0       
      +0       0       0       0       0
  1618 ;;      Temps:          0       0       0       0       0       0       0       0       0       0       0       0       
      +0       0       0       0       0
  1619 ;;      Totals:         4       0       0       0       0       0       0       0       0       0       0       0       
      +0       0       0       0       0
  1620 ;;Total ram usage:        4 bytes
  1621 ;; Hardware stack levels used: 1
  1622 ;; Hardware stack levels required when called: 5
  1623 ;; This function calls:
  1624 ;;		_vfpfcnvrt
  1625 ;; This function is called by:
  1626 ;;		_sprintf
  1627 ;; This function uses a non-reentrant model
  1628 ;;
  1629                           
  1630                           	psect	text7
  1631   002A56                     __ptext7:
  1632                           	callstack 0
  1633   002A56                     _vfprintf:
  1634                           	callstack 23
  1635   002A56                     
  1636                           ;C:\Program Files\Microchip\xc8\v2.45\pic\sources\c99\common\doprnt.c: 1817: int vfprint
      +                          f(FILE *fp, const char *fmt, va_list ap);C:\Program Files\Microchip\xc8\v2.45\pic\source
      +                          s\c99\common\doprnt.c: 1818: {;C:\Program Files\Microchip\xc8\v2.45\pic\sources\c99\comm
      +                          on\doprnt.c: 1820:     char *cfmt;;C:\Program Files\Microchip\xc8\v2.45\pic\sources\c99\
      +                          common\doprnt.c: 1822:     cfmt = (char *)fmt;
  1637   002A56  C018  F01A         	movff	vfprintf@fmt,vfprintf@cfmt
  1638                           
  1639                           ;C:\Program Files\Microchip\xc8\v2.45\pic\sources\c99\common\doprnt.c: 1826:     while (
      +                          *cfmt) {
  1640   002A5A  EF37  F015         	goto	l4249
  1641   002A5E                     l4247:
  1642                           
  1643                           ;C:\Program Files\Microchip\xc8\v2.45\pic\sources\c99\common\doprnt.c: 1830:    vfpfcnvr
      +                          t(fp, &cfmt, ap);
  1644   002A5E  C017  F00C         	movff	vfprintf@fp,vfpfcnvrt@fp
  1645   002A62  0E1A               	movlw	low vfprintf@cfmt
  1646   002A64  6E0D               	movwf	vfpfcnvrt@fmt^0,c
  1647   002A66  C019  F00E         	movff	vfprintf@ap,vfpfcnvrt@ap
  1648   002A6A  EC3F  F00D         	call	_vfpfcnvrt	;wreg free
  1649   002A6E                     l4249:
  1650                           
  1651                           ;C:\Program Files\Microchip\xc8\v2.45\pic\sources\c99\common\doprnt.c: 1826:     while (
      +                          *cfmt) {
  1652   002A6E  C01A  FFF6         	movff	vfprintf@cfmt,tblptrl
  1653   002A72                     	if	1	;There is more than 1 active tblptr byte
  1654   002A72  0E10               	movlw	high __smallconst
  1655   002A74  6EF7               	movwf	tblptrh,c
  1656   002A76                     	endif
  1657   002A76                     	if	1	;Program memory is < 0x10000, tblptru is always zero
  1658   002A76  6AF8               	clrf	tblptru,c
  1659   002A78                     	endif
  1660   002A78                     	if	0	;tblptru may be non-zero
  1661   002A78                     	endif
  1662   002A78  0008               	tblrd		*
  1663   002A7A  50F5               	movf	tablat,w,c
  1664   002A7C  0900               	iorlw	0
  1665   002A7E  A4D8               	btfss	status,2,c
  1666   002A80  EF44  F015         	goto	u3001
  1667   002A84  EF46  F015         	goto	u3000
  1668   002A88                     u3001:
  1669   002A88  EF2F  F015         	goto	l4247
  1670   002A8C                     u3000:
  1671   002A8C                     
  1672                           ;C:\Program Files\Microchip\xc8\v2.45\pic\sources\c99\common\doprnt.c: 1835:  return 0;
  1673   002A8C  0E00               	movlw	0
  1674   002A8E  6E18               	movwf	(?_vfprintf+1)^0,c
  1675   002A90  0E00               	movlw	0
  1676   002A92  6E17               	movwf	?_vfprintf^0,c
  1677   002A94  0012               	return		;funcret
  1678   002A96                     __end_of_vfprintf:
  1679                           	callstack 0
  1680                           
  1681 ;; *************** function _vfpfcnvrt *****************
  1682 ;; Defined at:
  1683 ;;		line 1177 in file "C:\Program Files\Microchip\xc8\v2.45\pic\sources\c99\common\doprnt.c"
  1684 ;; Parameters:    Size  Location     Type
  1685 ;;  fp              1   11[COMRAM] PTR struct _IO_FILE
  1686 ;;		 -> sprintf@f(12), 
  1687 ;;  fmt             1   12[COMRAM] PTR PTR unsigned char 
  1688 ;;		 -> vfprintf@cfmt(1), 
  1689 ;;  ap              1   13[COMRAM] PTR PTR void 
  1690 ;;		 -> sprintf@ap(1), 
  1691 ;; Auto vars:     Size  Location     Type
  1692 ;;  convarg         4   17[COMRAM] struct .
  1693 ;;  c               1   21[COMRAM] unsigned char 
  1694 ;;  cp              1   16[COMRAM] PTR unsigned char 
  1695 ;;		 -> STR_3(3), STR_2(3), STR_1(3), 
  1696 ;;  done            1   15[COMRAM] _Bool 
  1697 ;; Return value:  Size  Location     Type
  1698 ;;                  1    wreg      void 
  1699 ;; Registers used:
  1700 ;;		wreg, fsr1l, fsr1h, fsr2l, fsr2h, status,2, status,0, tblptrl, tblptrh, tblptru, cstack
  1701 ;; Tracked objects:
  1702 ;;		On entry : 0/0
  1703 ;;		On exit  : 0/0
  1704 ;;		Unchanged: 0/0
  1705 ;; Data sizes:     COMRAM   BANK0   BANK1   BANK2   BANK3   BANK4   BANK5   BANK6   BANK7   BANK8   BANK9  BANK10  BANK1
      +1  BANK12  BANK13  BANK14  BANK15
  1706 ;;      Params:         3       0       0       0       0       0       0       0       0       0       0       0       
      +0       0       0       0       0
  1707 ;;      Locals:         7       0       0       0       0       0       0       0       0       0       0       0       
      +0       0       0       0       0
  1708 ;;      Temps:          1       0       0       0       0       0       0       0       0       0       0       0       
      +0       0       0       0       0
  1709 ;;      Totals:        11       0       0       0       0       0       0       0       0       0       0       0       
      +0       0       0       0       0
  1710 ;;Total ram usage:       11 bytes
  1711 ;; Hardware stack levels used: 1
  1712 ;; Hardware stack levels required when called: 4
  1713 ;; This function calls:
  1714 ;;		___awdiv
  1715 ;;		___awmod
  1716 ;;		_abs
  1717 ;;		_fputc
  1718 ;; This function is called by:
  1719 ;;		_vfprintf
  1720 ;; This function uses a non-reentrant model
  1721 ;;
  1722                           
  1723                           	psect	text8
  1724   001A7E                     __ptext8:
  1725                           	callstack 0
  1726   001A7E                     _vfpfcnvrt:
  1727                           	callstack 23
  1728   001A7E                     
  1729                           ;C:\Program Files\Microchip\xc8\v2.45\pic\sources\c99\common\doprnt.c: 1177: vfpfcnvrt(F
      +                          ILE *fp, char *fmt[], va_list ap);C:\Program Files\Microchip\xc8\v2.45\pic\sources\c99\c
      +                          ommon\doprnt.c: 1178: {;C:\Program Files\Microchip\xc8\v2.45\pic\sources\c99\common\dopr
      +                          nt.c: 1179:     char c, *cp;;C:\Program Files\Microchip\xc8\v2.45\pic\sources\c99\common
      +                          \doprnt.c: 1180:     _Bool done;;C:\Program Files\Microchip\xc8\v2.45\pic\sources\c99\co
      +                          mmon\doprnt.c: 1188:  } convarg;;C:\Program Files\Microchip\xc8\v2.45\pic\sources\c99\co
      +                          mmon\doprnt.c: 1201:     if ((*fmt)[0] == '%') {
  1730   001A7E  500D               	movf	vfpfcnvrt@fmt^0,w,c
  1731   001A80  6ED9               	movwf	fsr2l,c
  1732   001A82  6ADA               	clrf	fsr2h,c
  1733   001A84  CFDF FFF6          	movff	indf2,tblptrl
  1734   001A88                     	if	1	;There is more than 1 active tblptr byte
  1735   001A88  0E10               	movlw	high __smallconst
  1736   001A8A  6EF7               	movwf	tblptrh,c
  1737   001A8C                     	endif
  1738   001A8C                     	if	1	;Program memory is < 0x10000, tblptru is always zero
  1739   001A8C  6AF8               	clrf	tblptru,c
  1740   001A8E                     	endif
  1741   001A8E                     	if	0	;tblptru may be non-zero
  1742   001A8E                     	endif
  1743   001A8E  0008               	tblrd		*
  1744   001A90  50F5               	movf	tablat,w,c
  1745   001A92  0A25               	xorlw	37
  1746   001A94  A4D8               	btfss	status,2,c
  1747   001A96  EF4F  F00D         	goto	u2821
  1748   001A9A  EF51  F00D         	goto	u2820
  1749   001A9E                     u2821:
  1750   001A9E  EF0C  F00E         	goto	l4159
  1751   001AA2                     u2820:
  1752   001AA2                     
  1753                           ;C:\Program Files\Microchip\xc8\v2.45\pic\sources\c99\common\doprnt.c: 1202:         ++*
      +                          fmt;
  1754   001AA2  500D               	movf	vfpfcnvrt@fmt^0,w,c
  1755   001AA4  6ED9               	movwf	fsr2l,c
  1756   001AA6  6ADA               	clrf	fsr2h,c
  1757   001AA8  2ADF               	incf	indf2,f,c
  1758   001AAA                     
  1759                           ;C:\Program Files\Microchip\xc8\v2.45\pic\sources\c99\common\doprnt.c: 1204:         fla
      +                          gs = width = 0;
  1760   001AAA  0E00               	movlw	0
  1761   001AAC  6E4D               	movwf	(_width+1)^0,c
  1762   001AAE  0E00               	movlw	0
  1763   001AB0  6E4C               	movwf	_width^0,c
  1764   001AB2  C04C  F066         	movff	_width,_flags
  1765   001AB6                     
  1766                           ;C:\Program Files\Microchip\xc8\v2.45\pic\sources\c99\common\doprnt.c: 1205:         pre
      +                          c = -1;
  1767   001AB6  684E               	setf	_prec^0,c
  1768   001AB8  684F               	setf	(_prec+1)^0,c
  1769   001ABA                     
  1770                           ;C:\Program Files\Microchip\xc8\v2.45\pic\sources\c99\common\doprnt.c: 1291:   cp = *fmt
      +                          ;
  1771   001ABA  500D               	movf	vfpfcnvrt@fmt^0,w,c
  1772   001ABC  6ED9               	movwf	fsr2l,c
  1773   001ABE  6ADA               	clrf	fsr2h,c
  1774   001AC0  50DF               	movf	indf2,w,c
  1775   001AC2  6E11               	movwf	vfpfcnvrt@cp^0,c
  1776   001AC4                     
  1777                           ;C:\Program Files\Microchip\xc8\v2.45\pic\sources\c99\common\doprnt.c: 1361:   if (*cp =
      +                          = 'd' || *cp == 'i') {
  1778   001AC4  C011  FFF6         	movff	vfpfcnvrt@cp,tblptrl
  1779   001AC8                     	if	1	;There is more than 1 active tblptr byte
  1780   001AC8  0E10               	movlw	high __smallconst
  1781   001ACA  6EF7               	movwf	tblptrh,c
  1782   001ACC                     	endif
  1783   001ACC                     	if	1	;Program memory is < 0x10000, tblptru is always zero
  1784   001ACC  6AF8               	clrf	tblptru,c
  1785   001ACE                     	endif
  1786   001ACE                     	if	0	;tblptru may be non-zero
  1787   001ACE                     	endif
  1788   001ACE  0008               	tblrd		*
  1789   001AD0  50F5               	movf	tablat,w,c
  1790   001AD2  0A64               	xorlw	100
  1791   001AD4  B4D8               	btfsc	status,2,c
  1792   001AD6  EF6F  F00D         	goto	u2831
  1793   001ADA  EF71  F00D         	goto	u2830
  1794   001ADE                     u2831:
  1795   001ADE  EF80  F00D         	goto	l4129
  1796   001AE2                     u2830:
  1797   001AE2  C011  FFF6         	movff	vfpfcnvrt@cp,tblptrl
  1798   001AE6                     	if	1	;There is more than 1 active tblptr byte
  1799   001AE6  0E10               	movlw	high __smallconst
  1800   001AE8  6EF7               	movwf	tblptrh,c
  1801   001AEA                     	endif
  1802   001AEA                     	if	1	;Program memory is < 0x10000, tblptru is always zero
  1803   001AEA  6AF8               	clrf	tblptru,c
  1804   001AEC                     	endif
  1805   001AEC                     	if	0	;tblptru may be non-zero
  1806   001AEC                     	endif
  1807   001AEC  0008               	tblrd		*
  1808   001AEE  50F5               	movf	tablat,w,c
  1809   001AF0  0A69               	xorlw	105
  1810   001AF2  A4D8               	btfss	status,2,c
  1811   001AF4  EF7E  F00D         	goto	u2841
  1812   001AF8  EF80  F00D         	goto	u2840
  1813   001AFC                     u2841:
  1814   001AFC  EF06  F00E         	goto	l4155
  1815   001B00                     u2840:
  1816   001B00                     l4129:
  1817                           
  1818                           ;C:\Program Files\Microchip\xc8\v2.45\pic\sources\c99\common\doprnt.c: 1404:    convarg.
      +                          sint = (vfpf_sint_t)(int)(*(int *)__va_arg(*(int **)ap, (int)0));
  1819   001B00  500E               	movf	vfpfcnvrt@ap^0,w,c
  1820   001B02  6ED9               	movwf	fsr2l,c
  1821   001B04  6ADA               	clrf	fsr2h,c
  1822   001B06  0E02               	movlw	2
  1823   001B08  26DF               	addwf	indf2,f,c
  1824   001B0A  5CDF               	subwf	indf2,w,c
  1825   001B0C  6ED9               	movwf	fsr2l,c
  1826   001B0E  6ADA               	clrf	fsr2h,c
  1827   001B10  CFDE F012          	movff	postinc2,vfpfcnvrt@convarg
  1828   001B14  CFDE F013          	movff	postinc2,vfpfcnvrt@convarg+1
  1829   001B18                     
  1830                           ;C:\Program Files\Microchip\xc8\v2.45\pic\sources\c99\common\doprnt.c: 1406:    *fmt = c
      +                          p+1;
  1831   001B18  500D               	movf	vfpfcnvrt@fmt^0,w,c
  1832   001B1A  6ED9               	movwf	fsr2l,c
  1833   001B1C  6ADA               	clrf	fsr2h,c
  1834   001B1E  2811               	incf	vfpfcnvrt@cp^0,w,c
  1835   001B20  6EDF               	movwf	indf2,c
  1836   001B22                     
  1837                           ;C:\Program Files\Microchip\xc8\v2.45\pic\sources\c99\common\doprnt.c: 1408:    c = size
      +                          of(dbuf);
  1838   001B22  0E20               	movlw	32
  1839   001B24  6E16               	movwf	vfpfcnvrt@c^0,c
  1840                           
  1841                           ;C:\Program Files\Microchip\xc8\v2.45\pic\sources\c99\common\doprnt.c: 1409:    done = c
      +                          onvarg.sint < 0;
  1842   001B26  BE13               	btfsc	(vfpfcnvrt@convarg+1)^0,7,c
  1843   001B28  EF98  F00D         	goto	u2851
  1844   001B2C  EF9B  F00D         	goto	u2850
  1845   001B30                     u2851:
  1846   001B30  0E01               	movlw	1
  1847   001B32  EF9C  F00D         	goto	u2860
  1848   001B36                     u2850:
  1849   001B36  0E00               	movlw	0
  1850   001B38                     u2860:
  1851   001B38  6E10               	movwf	vfpfcnvrt@done^0,c
  1852   001B3A                     l4135:
  1853                           
  1854                           ;C:\Program Files\Microchip\xc8\v2.45\pic\sources\c99\common\doprnt.c: 1411:     dbuf[--
      +                          c] = abs(convarg.sint % 10) + '0';
  1855   001B3A  0616               	decf	vfpfcnvrt@c^0,f,c
  1856   001B3C  5016               	movf	vfpfcnvrt@c^0,w,c
  1857   001B3E  0FA8               	addlw	low _dbuf
  1858   001B40  6ED9               	movwf	fsr2l,c
  1859   001B42  6ADA               	clrf	fsr2h,c
  1860   001B44  C012  F002         	movff	vfpfcnvrt@convarg,___awmod@dividend
  1861   001B48  C013  F003         	movff	vfpfcnvrt@convarg+1,___awmod@dividend+1
  1862   001B4C  0E00               	movlw	0
  1863   001B4E  6E05               	movwf	(___awmod@divisor+1)^0,c
  1864   001B50  0E0A               	movlw	10
  1865   001B52  6E04               	movwf	___awmod@divisor^0,c
  1866   001B54  EC46  F012         	call	___awmod	;wreg free
  1867   001B58  C002  F008         	movff	?___awmod,abs@a
  1868   001B5C  C003  F009         	movff	?___awmod+1,abs@a+1
  1869   001B60  ECDC  F015         	call	_abs	;wreg free
  1870   001B64  5008               	movf	?_abs^0,w,c
  1871   001B66  0F30               	addlw	48
  1872   001B68  6EDF               	movwf	indf2,c
  1873   001B6A                     
  1874                           ;C:\Program Files\Microchip\xc8\v2.45\pic\sources\c99\common\doprnt.c: 1412:     convarg
      +                          .sint /= 10;
  1875   001B6A  C012  F002         	movff	vfpfcnvrt@convarg,___awdiv@dividend
  1876   001B6E  C013  F003         	movff	vfpfcnvrt@convarg+1,___awdiv@dividend+1
  1877   001B72  0E00               	movlw	0
  1878   001B74  6E05               	movwf	(___awdiv@divisor+1)^0,c
  1879   001B76  0E0A               	movlw	10
  1880   001B78  6E04               	movwf	___awdiv@divisor^0,c
  1881   001B7A  EC87  F011         	call	___awdiv	;wreg free
  1882   001B7E  C002  F012         	movff	?___awdiv,vfpfcnvrt@convarg
  1883   001B82  C003  F013         	movff	?___awdiv+1,vfpfcnvrt@convarg+1
  1884   001B86                     
  1885                           ;C:\Program Files\Microchip\xc8\v2.45\pic\sources\c99\common\doprnt.c: 1416:    } while 
      +                          (convarg.sint != 0 && c != 0);
  1886   001B86  5012               	movf	vfpfcnvrt@convarg^0,w,c
  1887   001B88  1013               	iorwf	(vfpfcnvrt@convarg+1)^0,w,c
  1888   001B8A  B4D8               	btfsc	status,2,c
  1889   001B8C  EFCA  F00D         	goto	u2871
  1890   001B90  EFCC  F00D         	goto	u2870
  1891   001B94                     u2871:
  1892   001B94  EFD4  F00D         	goto	l4143
  1893   001B98                     u2870:
  1894   001B98  5016               	movf	vfpfcnvrt@c^0,w,c
  1895   001B9A  A4D8               	btfss	status,2,c
  1896   001B9C  EFD2  F00D         	goto	u2881
  1897   001BA0  EFD4  F00D         	goto	u2880
  1898   001BA4                     u2881:
  1899   001BA4  EF9D  F00D         	goto	l4135
  1900   001BA8                     u2880:
  1901   001BA8                     l4143:
  1902                           
  1903                           ;C:\Program Files\Microchip\xc8\v2.45\pic\sources\c99\common\doprnt.c: 1417:    if (c !=
      +                           0 && done) {
  1904   001BA8  5016               	movf	vfpfcnvrt@c^0,w,c
  1905   001BAA  B4D8               	btfsc	status,2,c
  1906   001BAC  EFDA  F00D         	goto	u2891
  1907   001BB0  EFDC  F00D         	goto	u2890
  1908   001BB4                     u2891:
  1909   001BB4  EFFB  F00D         	goto	l4153
  1910   001BB8                     u2890:
  1911   001BB8  5010               	movf	vfpfcnvrt@done^0,w,c
  1912   001BBA  B4D8               	btfsc	status,2,c
  1913   001BBC  EFE2  F00D         	goto	u2901
  1914   001BC0  EFE4  F00D         	goto	u2900
  1915   001BC4                     u2901:
  1916   001BC4  EFFB  F00D         	goto	l4153
  1917   001BC8                     u2900:
  1918   001BC8                     
  1919                           ;C:\Program Files\Microchip\xc8\v2.45\pic\sources\c99\common\doprnt.c: 1418:     dbuf[--
      +                          c] = '-';
  1920   001BC8  0616               	decf	vfpfcnvrt@c^0,f,c
  1921   001BCA  5016               	movf	vfpfcnvrt@c^0,w,c
  1922   001BCC  0FA8               	addlw	low _dbuf
  1923   001BCE  6ED9               	movwf	fsr2l,c
  1924   001BD0  6ADA               	clrf	fsr2h,c
  1925   001BD2  0E2D               	movlw	45
  1926   001BD4  6EDF               	movwf	indf2,c
  1927   001BD6  EFFB  F00D         	goto	l4153
  1928   001BDA                     l4149:
  1929                           
  1930                           ;C:\Program Files\Microchip\xc8\v2.45\pic\sources\c99\common\doprnt.c: 1424:     fputc(d
      +                          buf[c++], fp);
  1931   001BDA  5016               	movf	vfpfcnvrt@c^0,w,c
  1932   001BDC  0FA8               	addlw	low _dbuf
  1933   001BDE  6ED9               	movwf	fsr2l,c
  1934   001BE0  6ADA               	clrf	fsr2h,c
  1935   001BE2  50DF               	movf	indf2,w,c
  1936   001BE4  6E0F               	movwf	??_vfpfcnvrt^0,c
  1937   001BE6  500F               	movf	??_vfpfcnvrt^0,w,c
  1938   001BE8  6E02               	movwf	fputc@c^0,c
  1939   001BEA  6A03               	clrf	(fputc@c+1)^0,c
  1940   001BEC  C00C  F004         	movff	vfpfcnvrt@fp,fputc@fp
  1941   001BF0  EC9E  F012         	call	_fputc	;wreg free
  1942   001BF4  2A16               	incf	vfpfcnvrt@c^0,f,c
  1943   001BF6                     l4153:
  1944                           
  1945                           ;C:\Program Files\Microchip\xc8\v2.45\pic\sources\c99\common\doprnt.c: 1423:    while (c
      +                           != sizeof(dbuf)) {
  1946   001BF6  0E20               	movlw	32
  1947   001BF8  1816               	xorwf	vfpfcnvrt@c^0,w,c
  1948   001BFA  A4D8               	btfss	status,2,c
  1949   001BFC  EF02  F00E         	goto	u2911
  1950   001C00  EF04  F00E         	goto	u2910
  1951   001C04                     u2911:
  1952   001C04  EFED  F00D         	goto	l4149
  1953   001C08                     u2910:
  1954   001C08  EF1E  F00E         	goto	l2033
  1955   001C0C                     l4155:
  1956                           
  1957                           ;C:\Program Files\Microchip\xc8\v2.45\pic\sources\c99\common\doprnt.c: 1806:         ++*
      +                          fmt;
  1958   001C0C  500D               	movf	vfpfcnvrt@fmt^0,w,c
  1959   001C0E  6ED9               	movwf	fsr2l,c
  1960   001C10  6ADA               	clrf	fsr2h,c
  1961   001C12  2ADF               	incf	indf2,f,c
  1962   001C14  EF1E  F00E         	goto	l2033
  1963   001C18                     l4159:
  1964                           
  1965                           ;C:\Program Files\Microchip\xc8\v2.45\pic\sources\c99\common\doprnt.c: 1811:     fputc((
      +                          int)(*fmt)[0], fp);
  1966   001C18  500D               	movf	vfpfcnvrt@fmt^0,w,c
  1967   001C1A  6ED9               	movwf	fsr2l,c
  1968   001C1C  6ADA               	clrf	fsr2h,c
  1969   001C1E  CFDF FFF6          	movff	indf2,tblptrl
  1970   001C22                     	if	1	;There is more than 1 active tblptr byte
  1971   001C22  0E10               	movlw	high __smallconst
  1972   001C24  6EF7               	movwf	tblptrh,c
  1973   001C26                     	endif
  1974   001C26                     	if	1	;Program memory is < 0x10000, tblptru is always zero
  1975   001C26  6AF8               	clrf	tblptru,c
  1976   001C28                     	endif
  1977   001C28                     	if	0	;tblptru may be non-zero
  1978   001C28                     	endif
  1979   001C28  0008               	tblrd		*
  1980   001C2A  50F5               	movf	tablat,w,c
  1981   001C2C  6E02               	movwf	fputc@c^0,c
  1982   001C2E  6A03               	clrf	(fputc@c+1)^0,c
  1983   001C30  C00C  F004         	movff	vfpfcnvrt@fp,fputc@fp
  1984   001C34  EC9E  F012         	call	_fputc	;wreg free
  1985   001C38  EF06  F00E         	goto	l4155
  1986   001C3C                     l2033:
  1987   001C3C  0012               	return		;funcret
  1988   001C3E                     __end_of_vfpfcnvrt:
  1989                           	callstack 0
  1990                           
  1991 ;; *************** function _fputc *****************
  1992 ;; Defined at:
  1993 ;;		line 8 in file "C:\Program Files\Microchip\xc8\v2.45\pic\sources\c99\common\nf_fputc.c"
  1994 ;; Parameters:    Size  Location     Type
  1995 ;;  c               2    1[COMRAM] int 
  1996 ;;  fp              1    3[COMRAM] PTR struct _IO_FILE
  1997 ;;		 -> sprintf@f(12), 
  1998 ;; Auto vars:     Size  Location     Type
  1999 ;;		None
  2000 ;; Return value:  Size  Location     Type
  2001 ;;                  2    1[COMRAM] int 
  2002 ;; Registers used:
  2003 ;;		wreg, fsr1l, fsr1h, fsr2l, fsr2h, status,2, status,0, cstack
  2004 ;; Tracked objects:
  2005 ;;		On entry : 0/0
  2006 ;;		On exit  : 0/0
  2007 ;;		Unchanged: 0/0
  2008 ;; Data sizes:     COMRAM   BANK0   BANK1   BANK2   BANK3   BANK4   BANK5   BANK6   BANK7   BANK8   BANK9  BANK10  BANK1
      +1  BANK12  BANK13  BANK14  BANK15
  2009 ;;      Params:         3       0       0       0       0       0       0       0       0       0       0       0       
      +0       0       0       0       0
  2010 ;;      Locals:         0       0       0       0       0       0       0       0       0       0       0       0       
      +0       0       0       0       0
  2011 ;;      Temps:          5       0       0       0       0       0       0       0       0       0       0       0       
      +0       0       0       0       0
  2012 ;;      Totals:         8       0       0       0       0       0       0       0       0       0       0       0       
      +0       0       0       0       0
  2013 ;;Total ram usage:        8 bytes
  2014 ;; Hardware stack levels used: 1
  2015 ;; Hardware stack levels required when called: 3
  2016 ;; This function calls:
  2017 ;;		_putch
  2018 ;; This function is called by:
  2019 ;;		_vfpfcnvrt
  2020 ;; This function uses a non-reentrant model
  2021 ;;
  2022                           
  2023                           	psect	text9
  2024   00253C                     __ptext9:
  2025                           	callstack 0
  2026   00253C                     _fputc:
  2027                           	callstack 23
  2028   00253C  5004               	movf	fputc@fp^0,w,c
  2029   00253E  B4D8               	btfsc	status,2,c
  2030   002540  EFA4  F012         	goto	u2691
  2031   002544  EFA6  F012         	goto	u2690
  2032   002548                     u2691:
  2033   002548  EFAE  F012         	goto	l4051
  2034   00254C                     u2690:
  2035   00254C  5004               	movf	fputc@fp^0,w,c
  2036   00254E  A4D8               	btfss	status,2,c
  2037   002550  EFAC  F012         	goto	u2701
  2038   002554  EFAE  F012         	goto	u2700
  2039   002558                     u2701:
  2040   002558  EFB3  F012         	goto	l4053
  2041   00255C                     u2700:
  2042   00255C                     l4051:
  2043   00255C  5002               	movf	fputc@c^0,w,c
  2044   00255E  EC8F  F016         	call	_putch
  2045   002562  EFF2  F012         	goto	l2058
  2046   002566                     l4053:
  2047   002566  5004               	movf	fputc@fp^0,w,c
  2048   002568  6ED9               	movwf	fsr2l,c
  2049   00256A  6ADA               	clrf	fsr2h,c
  2050   00256C  0E0A               	movlw	10
  2051   00256E  26D9               	addwf	fsr2l,f,c
  2052   002570  50DE               	movf	postinc2,w,c
  2053   002572  10DE               	iorwf	postinc2,w,c
  2054   002574  B4D8               	btfsc	status,2,c
  2055   002576  EFBF  F012         	goto	u2711
  2056   00257A  EFC1  F012         	goto	u2710
  2057   00257E                     u2711:
  2058   00257E  EFDA  F012         	goto	l4057
  2059   002582                     u2710:
  2060   002582  5004               	movf	fputc@fp^0,w,c
  2061   002584  6ED9               	movwf	fsr2l,c
  2062   002586  6ADA               	clrf	fsr2h,c
  2063   002588  0E0A               	movlw	10
  2064   00258A  26D9               	addwf	fsr2l,f,c
  2065   00258C  5004               	movf	fputc@fp^0,w,c
  2066   00258E  6EE1               	movwf	fsr1l,c
  2067   002590  6AE2               	clrf	fsr1h,c
  2068   002592  0E03               	movlw	3
  2069   002594  26E1               	addwf	fsr1l,f,c
  2070   002596  50DE               	movf	postinc2,w,c
  2071   002598  5CE6               	subwf	postinc1,w,c
  2072   00259A  50E6               	movf	postinc1,w,c
  2073   00259C  0A80               	xorlw	128
  2074   00259E  6E09               	movwf	(??_fputc+4)^0,c
  2075   0025A0  50DE               	movf	postinc2,w,c
  2076   0025A2  0A80               	xorlw	128
  2077   0025A4  5809               	subwfb	(??_fputc+4)^0,w,c
  2078   0025A6  B0D8               	btfsc	status,0,c
  2079   0025A8  EFD8  F012         	goto	u2721
  2080   0025AC  EFDA  F012         	goto	u2720
  2081   0025B0                     u2721:
  2082   0025B0  EFF2  F012         	goto	l2058
  2083   0025B4                     u2720:
  2084   0025B4                     l4057:
  2085   0025B4  5004               	movf	fputc@fp^0,w,c
  2086   0025B6  6ED9               	movwf	fsr2l,c
  2087   0025B8  6ADA               	clrf	fsr2h,c
  2088   0025BA  0E03               	movlw	3
  2089   0025BC  26D9               	addwf	fsr2l,f,c
  2090   0025BE  50DF               	movf	indf2,w,c
  2091   0025C0  6E05               	movwf	??_fputc^0,c
  2092   0025C2  5004               	movf	fputc@fp^0,w,c
  2093   0025C4  6ED9               	movwf	fsr2l,c
  2094   0025C6  6ADA               	clrf	fsr2h,c
  2095   0025C8  50DF               	movf	indf2,w,c
  2096   0025CA  2405               	addwf	??_fputc^0,w,c
  2097   0025CC  6ED9               	movwf	fsr2l,c
  2098   0025CE  6ADA               	clrf	fsr2h,c
  2099   0025D0  C002  FFDF         	movff	fputc@c,indf2
  2100   0025D4  5004               	movf	fputc@fp^0,w,c
  2101   0025D6  6ED9               	movwf	fsr2l,c
  2102   0025D8  6ADA               	clrf	fsr2h,c
  2103   0025DA  0E03               	movlw	3
  2104   0025DC  26D9               	addwf	fsr2l,f,c
  2105   0025DE  2ADE               	incf	postinc2,f,c
  2106   0025E0  0E00               	movlw	0
  2107   0025E2  22DD               	addwfc	postdec2,f,c
  2108   0025E4                     l2058:
  2109   0025E4  0012               	return		;funcret
  2110   0025E6                     __end_of_fputc:
  2111                           	callstack 0
  2112                           
  2113 ;; *************** function _putch *****************
  2114 ;; Defined at:
  2115 ;;		line 7 in file "C:\Program Files\Microchip\xc8\v2.45\pic\sources\c99\common\putch.c"
  2116 ;; Parameters:    Size  Location     Type
  2117 ;;  c               1    wreg     unsigned char 
  2118 ;; Auto vars:     Size  Location     Type
  2119 ;;  c               1    0[COMRAM] unsigned char 
  2120 ;; Return value:  Size  Location     Type
  2121 ;;                  1    wreg      void 
  2122 ;; Registers used:
  2123 ;;		wreg
  2124 ;; Tracked objects:
  2125 ;;		On entry : 0/0
  2126 ;;		On exit  : 0/0
  2127 ;;		Unchanged: 0/0
  2128 ;; Data sizes:     COMRAM   BANK0   BANK1   BANK2   BANK3   BANK4   BANK5   BANK6   BANK7   BANK8   BANK9  BANK10  BANK1
      +1  BANK12  BANK13  BANK14  BANK15
  2129 ;;      Params:         0       0       0       0       0       0       0       0       0       0       0       0       
      +0       0       0       0       0
  2130 ;;      Locals:         0       0       0       0       0       0       0       0       0       0       0       0       
      +0       0       0       0       0
  2131 ;;      Temps:          0       0       0       0       0       0       0       0       0       0       0       0       
      +0       0       0       0       0
  2132 ;;      Totals:         0       0       0       0       0       0       0       0       0       0       0       0       
      +0       0       0       0       0
  2133 ;;Total ram usage:        0 bytes
  2134 ;; Hardware stack levels used: 1
  2135 ;; Hardware stack levels required when called: 2
  2136 ;; This function calls:
  2137 ;;		Nothing
  2138 ;; This function is called by:
  2139 ;;		_fputc
  2140 ;; This function uses a non-reentrant model
  2141 ;;
  2142                           
  2143                           	psect	text10
  2144   002D1E                     __ptext10:
  2145                           	callstack 0
  2146   002D1E                     _putch:
  2147                           	callstack 23
  2148   002D1E  0012               	return		;funcret
  2149   002D20                     __end_of_putch:
  2150                           	callstack 0
  2151                           
  2152 ;; *************** function _abs *****************
  2153 ;; Defined at:
  2154 ;;		line 1 in file "C:\Program Files\Microchip\xc8\v2.45\pic\sources\c99\common\abs.c"
  2155 ;; Parameters:    Size  Location     Type
  2156 ;;  a               2    7[COMRAM] int 
  2157 ;; Auto vars:     Size  Location     Type
  2158 ;;		None
  2159 ;; Return value:  Size  Location     Type
  2160 ;;                  2    7[COMRAM] int 
  2161 ;; Registers used:
  2162 ;;		wreg, status,2, status,0
  2163 ;; Tracked objects:
  2164 ;;		On entry : 0/0
  2165 ;;		On exit  : 0/0
  2166 ;;		Unchanged: 0/0
  2167 ;; Data sizes:     COMRAM   BANK0   BANK1   BANK2   BANK3   BANK4   BANK5   BANK6   BANK7   BANK8   BANK9  BANK10  BANK1
      +1  BANK12  BANK13  BANK14  BANK15
  2168 ;;      Params:         2       0       0       0       0       0       0       0       0       0       0       0       
      +0       0       0       0       0
  2169 ;;      Locals:         0       0       0       0       0       0       0       0       0       0       0       0       
      +0       0       0       0       0
  2170 ;;      Temps:          2       0       0       0       0       0       0       0       0       0       0       0       
      +0       0       0       0       0
  2171 ;;      Totals:         4       0       0       0       0       0       0       0       0       0       0       0       
      +0       0       0       0       0
  2172 ;;Total ram usage:        4 bytes
  2173 ;; Hardware stack levels used: 1
  2174 ;; Hardware stack levels required when called: 2
  2175 ;; This function calls:
  2176 ;;		Nothing
  2177 ;; This function is called by:
  2178 ;;		_vfpfcnvrt
  2179 ;; This function uses a non-reentrant model
  2180 ;;
  2181                           
  2182                           	psect	text11
  2183   002BB8                     __ptext11:
  2184                           	callstack 0
  2185   002BB8                     _abs:
  2186                           	callstack 24
  2187   002BB8  BE09               	btfsc	(abs@a+1)^0,7,c
  2188   002BBA  EFE1  F015         	goto	u2731
  2189   002BBE  EFE3  F015         	goto	u2730
  2190   002BC2                     u2731:
  2191   002BC2  EFE9  F015         	goto	l2043
  2192   002BC6                     u2730:
  2193   002BC6  C008  F008         	movff	abs@a,?_abs
  2194   002BCA  C009  F009         	movff	abs@a+1,?_abs+1
  2195   002BCE  EFF5  F015         	goto	l2046
  2196   002BD2                     l2043:
  2197   002BD2  C008  F00A         	movff	abs@a,??_abs
  2198   002BD6  C009  F00B         	movff	abs@a+1,??_abs+1
  2199   002BDA  1E0A               	comf	??_abs^0,f,c
  2200   002BDC  1E0B               	comf	(??_abs+1)^0,f,c
  2201   002BDE  4A0A               	infsnz	??_abs^0,f,c
  2202   002BE0  2A0B               	incf	(??_abs+1)^0,f,c
  2203   002BE2  C00A  F008         	movff	??_abs,?_abs
  2204   002BE6  C00B  F009         	movff	??_abs+1,?_abs+1
  2205   002BEA                     l2046:
  2206   002BEA  0012               	return		;funcret
  2207   002BEC                     __end_of_abs:
  2208                           	callstack 0
  2209                           
  2210 ;; *************** function ___awmod *****************
  2211 ;; Defined at:
  2212 ;;		line 7 in file "C:\Program Files\Microchip\xc8\v2.45\pic\sources\c99\common\awmod.c"
  2213 ;; Parameters:    Size  Location     Type
  2214 ;;  dividend        2    1[COMRAM] int 
  2215 ;;  divisor         2    3[COMRAM] int 
  2216 ;; Auto vars:     Size  Location     Type
  2217 ;;  sign            1    6[COMRAM] unsigned char 
  2218 ;;  counter         1    5[COMRAM] unsigned char 
  2219 ;; Return value:  Size  Location     Type
  2220 ;;                  2    1[COMRAM] int 
  2221 ;; Registers used:
  2222 ;;		wreg, status,2, status,0
  2223 ;; Tracked objects:
  2224 ;;		On entry : 0/0
  2225 ;;		On exit  : 0/0
  2226 ;;		Unchanged: 0/0
  2227 ;; Data sizes:     COMRAM   BANK0   BANK1   BANK2   BANK3   BANK4   BANK5   BANK6   BANK7   BANK8   BANK9  BANK10  BANK1
      +1  BANK12  BANK13  BANK14  BANK15
  2228 ;;      Params:         4       0       0       0       0       0       0       0       0       0       0       0       
      +0       0       0       0       0
  2229 ;;      Locals:         2       0       0       0       0       0       0       0       0       0       0       0       
      +0       0       0       0       0
  2230 ;;      Temps:          0       0       0       0       0       0       0       0       0       0       0       0       
      +0       0       0       0       0
  2231 ;;      Totals:         6       0       0       0       0       0       0       0       0       0       0       0       
      +0       0       0       0       0
  2232 ;;Total ram usage:        6 bytes
  2233 ;; Hardware stack levels used: 1
  2234 ;; Hardware stack levels required when called: 2
  2235 ;; This function calls:
  2236 ;;		Nothing
  2237 ;; This function is called by:
  2238 ;;		_vfpfcnvrt
  2239 ;; This function uses a non-reentrant model
  2240 ;;
  2241                           
  2242                           	psect	text12
  2243   00248C                     __ptext12:
  2244                           	callstack 0
  2245   00248C                     ___awmod:
  2246                           	callstack 24
  2247   00248C  0E00               	movlw	0
  2248   00248E  6E07               	movwf	___awmod@sign^0,c
  2249   002490  BE03               	btfsc	(___awmod@dividend+1)^0,7,c
  2250   002492  EF4F  F012         	goto	u2630
  2251   002496  EF4D  F012         	goto	u2631
  2252   00249A                     u2631:
  2253   00249A  EF55  F012         	goto	l4019
  2254   00249E                     u2630:
  2255   00249E  6C02               	negf	___awmod@dividend^0,c
  2256   0024A0  1E03               	comf	(___awmod@dividend+1)^0,f,c
  2257   0024A2  B0D8               	btfsc	status,0,c
  2258   0024A4  2A03               	incf	(___awmod@dividend+1)^0,f,c
  2259   0024A6  0E01               	movlw	1
  2260   0024A8  6E07               	movwf	___awmod@sign^0,c
  2261   0024AA                     l4019:
  2262   0024AA  BE05               	btfsc	(___awmod@divisor+1)^0,7,c
  2263   0024AC  EF5C  F012         	goto	u2640
  2264   0024B0  EF5A  F012         	goto	u2641
  2265   0024B4                     u2641:
  2266   0024B4  EF60  F012         	goto	l4023
  2267   0024B8                     u2640:
  2268   0024B8  6C04               	negf	___awmod@divisor^0,c
  2269   0024BA  1E05               	comf	(___awmod@divisor+1)^0,f,c
  2270   0024BC  B0D8               	btfsc	status,0,c
  2271   0024BE  2A05               	incf	(___awmod@divisor+1)^0,f,c
  2272   0024C0                     l4023:
  2273   0024C0  5004               	movf	___awmod@divisor^0,w,c
  2274   0024C2  1005               	iorwf	(___awmod@divisor+1)^0,w,c
  2275   0024C4  B4D8               	btfsc	status,2,c
  2276   0024C6  EF67  F012         	goto	u2651
  2277   0024CA  EF69  F012         	goto	u2650
  2278   0024CE                     u2651:
  2279   0024CE  EF8D  F012         	goto	l4039
  2280   0024D2                     u2650:
  2281   0024D2  0E01               	movlw	1
  2282   0024D4  6E06               	movwf	___awmod@counter^0,c
  2283   0024D6  EF71  F012         	goto	l4029
  2284   0024DA                     l4027:
  2285   0024DA  90D8               	bcf	status,0,c
  2286   0024DC  3604               	rlcf	___awmod@divisor^0,f,c
  2287   0024DE  3605               	rlcf	(___awmod@divisor+1)^0,f,c
  2288   0024E0  2A06               	incf	___awmod@counter^0,f,c
  2289   0024E2                     l4029:
  2290   0024E2  AE05               	btfss	(___awmod@divisor+1)^0,7,c
  2291   0024E4  EF76  F012         	goto	u2661
  2292   0024E8  EF78  F012         	goto	u2660
  2293   0024EC                     u2661:
  2294   0024EC  EF6D  F012         	goto	l4027
  2295   0024F0                     u2660:
  2296   0024F0                     l4031:
  2297   0024F0  5004               	movf	___awmod@divisor^0,w,c
  2298   0024F2  5C02               	subwf	___awmod@dividend^0,w,c
  2299   0024F4  5005               	movf	(___awmod@divisor+1)^0,w,c
  2300   0024F6  5803               	subwfb	(___awmod@dividend+1)^0,w,c
  2301   0024F8  A0D8               	btfss	status,0,c
  2302   0024FA  EF81  F012         	goto	u2671
  2303   0024FE  EF83  F012         	goto	u2670
  2304   002502                     u2671:
  2305   002502  EF87  F012         	goto	l4035
  2306   002506                     u2670:
  2307   002506  5004               	movf	___awmod@divisor^0,w,c
  2308   002508  5E02               	subwf	___awmod@dividend^0,f,c
  2309   00250A  5005               	movf	(___awmod@divisor+1)^0,w,c
  2310   00250C  5A03               	subwfb	(___awmod@dividend+1)^0,f,c
  2311   00250E                     l4035:
  2312   00250E  90D8               	bcf	status,0,c
  2313   002510  3205               	rrcf	(___awmod@divisor+1)^0,f,c
  2314   002512  3204               	rrcf	___awmod@divisor^0,f,c
  2315   002514  2E06               	decfsz	___awmod@counter^0,f,c
  2316   002516  EF78  F012         	goto	l4031
  2317   00251A                     l4039:
  2318   00251A  5007               	movf	___awmod@sign^0,w,c
  2319   00251C  B4D8               	btfsc	status,2,c
  2320   00251E  EF93  F012         	goto	u2681
  2321   002522  EF95  F012         	goto	u2680
  2322   002526                     u2681:
  2323   002526  EF99  F012         	goto	l4043
  2324   00252A                     u2680:
  2325   00252A  6C02               	negf	___awmod@dividend^0,c
  2326   00252C  1E03               	comf	(___awmod@dividend+1)^0,f,c
  2327   00252E  B0D8               	btfsc	status,0,c
  2328   002530  2A03               	incf	(___awmod@dividend+1)^0,f,c
  2329   002532                     l4043:
  2330   002532  C002  F002         	movff	___awmod@dividend,?___awmod
  2331   002536  C003  F003         	movff	___awmod@dividend+1,?___awmod+1
  2332   00253A  0012               	return		;funcret
  2333   00253C                     __end_of___awmod:
  2334                           	callstack 0
  2335                           
  2336 ;; *************** function ___awdiv *****************
  2337 ;; Defined at:
  2338 ;;		line 7 in file "C:\Program Files\Microchip\xc8\v2.45\pic\sources\c99\common\awdiv.c"
  2339 ;; Parameters:    Size  Location     Type
  2340 ;;  dividend        2    1[COMRAM] int 
  2341 ;;  divisor         2    3[COMRAM] int 
  2342 ;; Auto vars:     Size  Location     Type
  2343 ;;  quotient        2    7[COMRAM] int 
  2344 ;;  sign            1    6[COMRAM] unsigned char 
  2345 ;;  counter         1    5[COMRAM] unsigned char 
  2346 ;; Return value:  Size  Location     Type
  2347 ;;                  2    1[COMRAM] int 
  2348 ;; Registers used:
  2349 ;;		wreg, status,2, status,0
  2350 ;; Tracked objects:
  2351 ;;		On entry : 0/0
  2352 ;;		On exit  : 0/0
  2353 ;;		Unchanged: 0/0
  2354 ;; Data sizes:     COMRAM   BANK0   BANK1   BANK2   BANK3   BANK4   BANK5   BANK6   BANK7   BANK8   BANK9  BANK10  BANK1
      +1  BANK12  BANK13  BANK14  BANK15
  2355 ;;      Params:         4       0       0       0       0       0       0       0       0       0       0       0       
      +0       0       0       0       0
  2356 ;;      Locals:         4       0       0       0       0       0       0       0       0       0       0       0       
      +0       0       0       0       0
  2357 ;;      Temps:          0       0       0       0       0       0       0       0       0       0       0       0       
      +0       0       0       0       0
  2358 ;;      Totals:         8       0       0       0       0       0       0       0       0       0       0       0       
      +0       0       0       0       0
  2359 ;;Total ram usage:        8 bytes
  2360 ;; Hardware stack levels used: 1
  2361 ;; Hardware stack levels required when called: 2
  2362 ;; This function calls:
  2363 ;;		Nothing
  2364 ;; This function is called by:
  2365 ;;		_vfpfcnvrt
  2366 ;; This function uses a non-reentrant model
  2367 ;;
  2368                           
  2369                           	psect	text13
  2370   00230E                     __ptext13:
  2371                           	callstack 0
  2372   00230E                     ___awdiv:
  2373                           	callstack 24
  2374   00230E  0E00               	movlw	0
  2375   002310  6E07               	movwf	___awdiv@sign^0,c
  2376   002312  BE05               	btfsc	(___awdiv@divisor+1)^0,7,c
  2377   002314  EF90  F011         	goto	u2570
  2378   002318  EF8E  F011         	goto	u2571
  2379   00231C                     u2571:
  2380   00231C  EF96  F011         	goto	l3975
  2381   002320                     u2570:
  2382   002320  6C04               	negf	___awdiv@divisor^0,c
  2383   002322  1E05               	comf	(___awdiv@divisor+1)^0,f,c
  2384   002324  B0D8               	btfsc	status,0,c
  2385   002326  2A05               	incf	(___awdiv@divisor+1)^0,f,c
  2386   002328  0E01               	movlw	1
  2387   00232A  6E07               	movwf	___awdiv@sign^0,c
  2388   00232C                     l3975:
  2389   00232C  BE03               	btfsc	(___awdiv@dividend+1)^0,7,c
  2390   00232E  EF9D  F011         	goto	u2580
  2391   002332  EF9B  F011         	goto	u2581
  2392   002336                     u2581:
  2393   002336  EFA3  F011         	goto	l3981
  2394   00233A                     u2580:
  2395   00233A  6C02               	negf	___awdiv@dividend^0,c
  2396   00233C  1E03               	comf	(___awdiv@dividend+1)^0,f,c
  2397   00233E  B0D8               	btfsc	status,0,c
  2398   002340  2A03               	incf	(___awdiv@dividend+1)^0,f,c
  2399   002342  0E01               	movlw	1
  2400   002344  1A07               	xorwf	___awdiv@sign^0,f,c
  2401   002346                     l3981:
  2402   002346  0E00               	movlw	0
  2403   002348  6E09               	movwf	(___awdiv@quotient+1)^0,c
  2404   00234A  0E00               	movlw	0
  2405   00234C  6E08               	movwf	___awdiv@quotient^0,c
  2406   00234E  5004               	movf	___awdiv@divisor^0,w,c
  2407   002350  1005               	iorwf	(___awdiv@divisor+1)^0,w,c
  2408   002352  B4D8               	btfsc	status,2,c
  2409   002354  EFAE  F011         	goto	u2591
  2410   002358  EFB0  F011         	goto	u2590
  2411   00235C                     u2591:
  2412   00235C  EFD8  F011         	goto	l4003
  2413   002360                     u2590:
  2414   002360  0E01               	movlw	1
  2415   002362  6E06               	movwf	___awdiv@counter^0,c
  2416   002364  EFB8  F011         	goto	l3989
  2417   002368                     l3987:
  2418   002368  90D8               	bcf	status,0,c
  2419   00236A  3604               	rlcf	___awdiv@divisor^0,f,c
  2420   00236C  3605               	rlcf	(___awdiv@divisor+1)^0,f,c
  2421   00236E  2A06               	incf	___awdiv@counter^0,f,c
  2422   002370                     l3989:
  2423   002370  AE05               	btfss	(___awdiv@divisor+1)^0,7,c
  2424   002372  EFBD  F011         	goto	u2601
  2425   002376  EFBF  F011         	goto	u2600
  2426   00237A                     u2601:
  2427   00237A  EFB4  F011         	goto	l3987
  2428   00237E                     u2600:
  2429   00237E                     l3991:
  2430   00237E  90D8               	bcf	status,0,c
  2431   002380  3608               	rlcf	___awdiv@quotient^0,f,c
  2432   002382  3609               	rlcf	(___awdiv@quotient+1)^0,f,c
  2433   002384  5004               	movf	___awdiv@divisor^0,w,c
  2434   002386  5C02               	subwf	___awdiv@dividend^0,w,c
  2435   002388  5005               	movf	(___awdiv@divisor+1)^0,w,c
  2436   00238A  5803               	subwfb	(___awdiv@dividend+1)^0,w,c
  2437   00238C  A0D8               	btfss	status,0,c
  2438   00238E  EFCB  F011         	goto	u2611
  2439   002392  EFCD  F011         	goto	u2610
  2440   002396                     u2611:
  2441   002396  EFD2  F011         	goto	l3999
  2442   00239A                     u2610:
  2443   00239A  5004               	movf	___awdiv@divisor^0,w,c
  2444   00239C  5E02               	subwf	___awdiv@dividend^0,f,c
  2445   00239E  5005               	movf	(___awdiv@divisor+1)^0,w,c
  2446   0023A0  5A03               	subwfb	(___awdiv@dividend+1)^0,f,c
  2447   0023A2  8008               	bsf	___awdiv@quotient^0,0,c
  2448   0023A4                     l3999:
  2449   0023A4  90D8               	bcf	status,0,c
  2450   0023A6  3205               	rrcf	(___awdiv@divisor+1)^0,f,c
  2451   0023A8  3204               	rrcf	___awdiv@divisor^0,f,c
  2452   0023AA  2E06               	decfsz	___awdiv@counter^0,f,c
  2453   0023AC  EFBF  F011         	goto	l3991
  2454   0023B0                     l4003:
  2455   0023B0  5007               	movf	___awdiv@sign^0,w,c
  2456   0023B2  B4D8               	btfsc	status,2,c
  2457   0023B4  EFDE  F011         	goto	u2621
  2458   0023B8  EFE0  F011         	goto	u2620
  2459   0023BC                     u2621:
  2460   0023BC  EFE4  F011         	goto	l4007
  2461   0023C0                     u2620:
  2462   0023C0  6C08               	negf	___awdiv@quotient^0,c
  2463   0023C2  1E09               	comf	(___awdiv@quotient+1)^0,f,c
  2464   0023C4  B0D8               	btfsc	status,0,c
  2465   0023C6  2A09               	incf	(___awdiv@quotient+1)^0,f,c
  2466   0023C8                     l4007:
  2467   0023C8  C008  F002         	movff	___awdiv@quotient,?___awdiv
  2468   0023CC  C009  F003         	movff	___awdiv@quotient+1,?___awdiv+1
  2469   0023D0  0012               	return		;funcret
  2470   0023D2                     __end_of___awdiv:
  2471                           	callstack 0
  2472                           
  2473 ;; *************** function _memset *****************
  2474 ;; Defined at:
  2475 ;;		line 3 in file "C:\Program Files\Microchip\xc8\v2.45\pic\sources\c99\common\memset.c"
  2476 ;; Parameters:    Size  Location     Type
  2477 ;;  dest            1    1[COMRAM] PTR void 
  2478 ;;		 -> lm35_txt(7), 
  2479 ;;  c               2    2[COMRAM] int 
  2480 ;;  n               2    4[COMRAM] unsigned int 
  2481 ;; Auto vars:     Size  Location     Type
  2482 ;;  p               1    6[COMRAM] PTR unsigned char 
  2483 ;;		 -> lm35_txt(7), 
  2484 ;; Return value:  Size  Location     Type
  2485 ;;                  1    wreg      PTR void 
  2486 ;; Registers used:
  2487 ;;		wreg, fsr2l, fsr2h, status,2, status,0
  2488 ;; Tracked objects:
  2489 ;;		On entry : 0/0
  2490 ;;		On exit  : 0/0
  2491 ;;		Unchanged: 0/0
  2492 ;; Data sizes:     COMRAM   BANK0   BANK1   BANK2   BANK3   BANK4   BANK5   BANK6   BANK7   BANK8   BANK9  BANK10  BANK1
      +1  BANK12  BANK13  BANK14  BANK15
  2493 ;;      Params:         5       0       0       0       0       0       0       0       0       0       0       0       
      +0       0       0       0       0
  2494 ;;      Locals:         1       0       0       0       0       0       0       0       0       0       0       0       
      +0       0       0       0       0
  2495 ;;      Temps:          0       0       0       0       0       0       0       0       0       0       0       0       
      +0       0       0       0       0
  2496 ;;      Totals:         6       0       0       0       0       0       0       0       0       0       0       0       
      +0       0       0       0       0
  2497 ;;Total ram usage:        6 bytes
  2498 ;; Hardware stack levels used: 1
  2499 ;; Hardware stack levels required when called: 2
  2500 ;; This function calls:
  2501 ;;		Nothing
  2502 ;; This function is called by:
  2503 ;;		_convert_uint16_to_string
  2504 ;;		_convert_uint8_to_string
  2505 ;;		_convert_uint32_to_string
  2506 ;; This function uses a non-reentrant model
  2507 ;;
  2508                           
  2509                           	psect	text14
  2510   002BEC                     __ptext14:
  2511                           	callstack 0
  2512   002BEC                     _memset:
  2513                           	callstack 27
  2514   002BEC  C002  F007         	movff	memset@dest,memset@p
  2515   002BF0  EF00  F016         	goto	l4345
  2516   002BF4                     l4341:
  2517   002BF4  5007               	movf	memset@p^0,w,c
  2518   002BF6  6ED9               	movwf	fsr2l,c
  2519   002BF8  6ADA               	clrf	fsr2h,c
  2520   002BFA  C003  FFDF         	movff	memset@c,indf2
  2521   002BFE  2A07               	incf	memset@p^0,f,c
  2522   002C00                     l4345:
  2523   002C00  0605               	decf	memset@n^0,f,c
  2524   002C02  A0D8               	btfss	status,0,c
  2525   002C04  0606               	decf	(memset@n+1)^0,f,c
  2526   002C06  2805               	incf	memset@n^0,w,c
  2527   002C08  E106               	bnz	u3081
  2528   002C0A  2806               	incf	(memset@n+1)^0,w,c
  2529   002C0C  A4D8               	btfss	status,2,c
  2530   002C0E  EF0B  F016         	goto	u3081
  2531   002C12  EF0D  F016         	goto	u3080
  2532   002C16                     u3081:
  2533   002C16  EFFA  F015         	goto	l4341
  2534   002C1A                     u3080:
  2535   002C1A  0012               	return		;funcret
  2536   002C1C                     __end_of_memset:
  2537                           	callstack 0
  2538                           
  2539 ;; *************** function _app_init *****************
  2540 ;; Defined at:
  2541 ;;		line 96 in file "application.c"
  2542 ;; Parameters:    Size  Location     Type
  2543 ;;		None
  2544 ;; Auto vars:     Size  Location     Type
  2545 ;;		None
  2546 ;; Return value:  Size  Location     Type
  2547 ;;                  1    wreg      void 
  2548 ;; Registers used:
  2549 ;;		wreg, fsr2l, fsr2h, status,2, status,0, prodl, prodh, cstack
  2550 ;; Tracked objects:
  2551 ;;		On entry : 0/0
  2552 ;;		On exit  : 0/0
  2553 ;;		Unchanged: 0/0
  2554 ;; Data sizes:     COMRAM   BANK0   BANK1   BANK2   BANK3   BANK4   BANK5   BANK6   BANK7   BANK8   BANK9  BANK10  BANK1
      +1  BANK12  BANK13  BANK14  BANK15
  2555 ;;      Params:         0       0       0       0       0       0       0       0       0       0       0       0       
      +0       0       0       0       0
  2556 ;;      Locals:         0       0       0       0       0       0       0       0       0       0       0       0       
      +0       0       0       0       0
  2557 ;;      Temps:          0       0       0       0       0       0       0       0       0       0       0       0       
      +0       0       0       0       0
  2558 ;;      Totals:         0       0       0       0       0       0       0       0       0       0       0       0       
      +0       0       0       0       0
  2559 ;;Total ram usage:        0 bytes
  2560 ;; Hardware stack levels used: 1
  2561 ;; Hardware stack levels required when called: 6
  2562 ;; This function calls:
  2563 ;;		_ADC_Init
  2564 ;;		_lcd_init
  2565 ;; This function is called by:
  2566 ;;		_main
  2567 ;; This function uses a non-reentrant model
  2568 ;;
  2569                           
  2570                           	psect	text15
  2571   002CF4                     __ptext15:
  2572                           	callstack 0
  2573   002CF4                     _app_init:
  2574                           	callstack 24
  2575   002CF4                     
  2576                           ;application.c: 100:     ret=ADC_Init(&adc_1);
  2577   002CF4  0E75               	movlw	low _adc_1
  2578   002CF6  6E05               	movwf	ADC_Init@adc_obj^0,c
  2579   002CF8  EC43  F013         	call	_ADC_Init	;wreg free
  2580   002CFC  6E7B               	movwf	_ret^0,c
  2581   002CFE                     
  2582                           ;application.c: 101:     ret=lcd_init(&lcd_1);
  2583   002CFE  0E9E               	movlw	low _lcd_1
  2584   002D00  6E14               	movwf	lcd_init@lcd_obj^0,c
  2585   002D02  EC14  F011         	call	_lcd_init	;wreg free
  2586   002D06  6E7B               	movwf	_ret^0,c
  2587   002D08  0012               	return		;funcret
  2588   002D0A                     __end_of_app_init:
  2589                           	callstack 0
  2590                           
  2591 ;; *************** function _lcd_init *****************
  2592 ;; Defined at:
  2593 ;;		line 24 in file "ECU_Layer/Char_LCD/ecu_char_LDC.c"
  2594 ;; Parameters:    Size  Location     Type
  2595 ;;  lcd_obj         1   19[COMRAM] PTR const struct .
  2596 ;;		 -> lcd_1(10), 
  2597 ;; Auto vars:     Size  Location     Type
  2598 ;;  ret             1   22[COMRAM] unsigned char 
  2599 ;;  l_count         1   21[COMRAM] unsigned char 
  2600 ;; Return value:  Size  Location     Type
  2601 ;;                  1    wreg      unsigned char 
  2602 ;; Registers used:
  2603 ;;		wreg, fsr2l, fsr2h, status,2, status,0, prodl, prodh, cstack
  2604 ;; Tracked objects:
  2605 ;;		On entry : 0/0
  2606 ;;		On exit  : 0/0
  2607 ;;		Unchanged: 0/0
  2608 ;; Data sizes:     COMRAM   BANK0   BANK1   BANK2   BANK3   BANK4   BANK5   BANK6   BANK7   BANK8   BANK9  BANK10  BANK1
      +1  BANK12  BANK13  BANK14  BANK15
  2609 ;;      Params:         1       0       0       0       0       0       0       0       0       0       0       0       
      +0       0       0       0       0
  2610 ;;      Locals:         2       0       0       0       0       0       0       0       0       0       0       0       
      +0       0       0       0       0
  2611 ;;      Temps:          1       0       0       0       0       0       0       0       0       0       0       0       
      +0       0       0       0       0
  2612 ;;      Totals:         4       0       0       0       0       0       0       0       0       0       0       0       
      +0       0       0       0       0
  2613 ;;Total ram usage:        4 bytes
  2614 ;; Hardware stack levels used: 1
  2615 ;; Hardware stack levels required when called: 5
  2616 ;; This function calls:
  2617 ;;		_gpio_pin_init
  2618 ;;		_lcd_send_command
  2619 ;; This function is called by:
  2620 ;;		_app_init
  2621 ;; This function uses a non-reentrant model
  2622 ;;
  2623                           
  2624                           	psect	text16
  2625   002228                     __ptext16:
  2626                           	callstack 0
  2627   002228                     _lcd_init:
  2628                           	callstack 24
  2629   002228                     
  2630                           ;ECU_Layer/Char_LCD/ecu_char_LDC.c: 26:     uint8 l_count=0;
  2631   002228  0E00               	movlw	0
  2632   00222A  6E16               	movwf	lcd_init@l_count^0,c
  2633                           
  2634                           ;ECU_Layer/Char_LCD/ecu_char_LDC.c: 27:     if(((void*)0) == lcd_obj)
  2635   00222C  5014               	movf	lcd_init@lcd_obj^0,w,c
  2636   00222E  A4D8               	btfss	status,2,c
  2637   002230  EF1C  F011         	goto	u3011
  2638   002234  EF1E  F011         	goto	u3010
  2639   002238                     u3011:
  2640   002238  EF22  F011         	goto	l4259
  2641   00223C                     u3010:
  2642   00223C                     
  2643                           ;ECU_Layer/Char_LCD/ecu_char_LDC.c: 28:     {;ECU_Layer/Char_LCD/ecu_char_LDC.c: 29:    
      +                               ret=((Std_RetrunType) 0x00);
  2644   00223C  0E00               	movlw	0
  2645   00223E  6E17               	movwf	lcd_init@ret^0,c
  2646                           
  2647                           ;ECU_Layer/Char_LCD/ecu_char_LDC.c: 30:     }
  2648   002240  EF85  F011         	goto	l4295
  2649   002244                     l4259:
  2650                           
  2651                           ;ECU_Layer/Char_LCD/ecu_char_LDC.c: 32:     {;ECU_Layer/Char_LCD/ecu_char_LDC.c: 33:    
      +                               ret=gpio_pin_init(&(lcd_obj->rs_pin));
  2652   002244  C014  F00A         	movff	lcd_init@lcd_obj,gpio_pin_init@pin_confg
  2653   002248  EC47  F014         	call	_gpio_pin_init	;wreg free
  2654   00224C  6E17               	movwf	lcd_init@ret^0,c
  2655                           
  2656                           ;ECU_Layer/Char_LCD/ecu_char_LDC.c: 34:         ret=gpio_pin_init(&(lcd_obj->en_pin));
  2657   00224E  2814               	incf	lcd_init@lcd_obj^0,w,c
  2658   002250  6E0A               	movwf	gpio_pin_init@pin_confg^0,c
  2659   002252  EC47  F014         	call	_gpio_pin_init	;wreg free
  2660   002256  6E17               	movwf	lcd_init@ret^0,c
  2661   002258                     
  2662                           ;ECU_Layer/Char_LCD/ecu_char_LDC.c: 43:             for(l_count=0;l_count< 8;l_count++)
  2663   002258  0E00               	movlw	0
  2664   00225A  6E16               	movwf	lcd_init@l_count^0,c
  2665   00225C                     l4267:
  2666   00225C  5014               	movf	lcd_init@lcd_obj^0,w,c
  2667   00225E  2416               	addwf	lcd_init@l_count^0,w,c
  2668   002260  0F02               	addlw	2
  2669   002262  6E0A               	movwf	gpio_pin_init@pin_confg^0,c
  2670   002264  EC47  F014         	call	_gpio_pin_init	;wreg free
  2671   002268                     
  2672                           ;ECU_Layer/Char_LCD/ecu_char_LDC.c: 46:             }
  2673   002268  2A16               	incf	lcd_init@l_count^0,f,c
  2674   00226A  0E07               	movlw	7
  2675   00226C  6416               	cpfsgt	lcd_init@l_count^0,c
  2676   00226E  EF3B  F011         	goto	u3021
  2677   002272  EF3D  F011         	goto	u3020
  2678   002276                     u3021:
  2679   002276  EF2E  F011         	goto	l4267
  2680   00227A                     u3020:
  2681   00227A                     
  2682                           ;ECU_Layer/Char_LCD/ecu_char_LDC.c: 50:          _delay((unsigned long)((20)*(8000000/40
      +                          00.0)));
  2683   00227A  0E34               	movlw	52
  2684   00227C  6E15               	movwf	??_lcd_init^0,c
  2685   00227E  0EF2               	movlw	242
  2686   002280                     u4407:
  2687   002280  2EE8               	decfsz	wreg,f,c
  2688   002282  D7FE               	bra	u4407
  2689   002284  2E15               	decfsz	??_lcd_init^0,f,c
  2690   002286  D7FC               	bra	u4407
  2691   002288  C014  F010         	movff	lcd_init@lcd_obj,lcd_send_command@lcd_obj
  2692   00228C  0E38               	movlw	56
  2693   00228E  6E11               	movwf	lcd_send_command@cmd^0,c
  2694   002290  ECC5  F014         	call	_lcd_send_command	;wreg free
  2695   002294                     
  2696                           ;ECU_Layer/Char_LCD/ecu_char_LDC.c: 53:         _delay((unsigned long)((5)*(8000000/4000
      +                          .0)));
  2697   002294  0E0D               	movlw	13
  2698   002296  6E15               	movwf	??_lcd_init^0,c
  2699   002298  0EFC               	movlw	252
  2700   00229A                     u4417:
  2701   00229A  2EE8               	decfsz	wreg,f,c
  2702   00229C  D7FE               	bra	u4417
  2703   00229E  2E15               	decfsz	??_lcd_init^0,f,c
  2704   0022A0  D7FC               	bra	u4417
  2705   0022A2  C014  F010         	movff	lcd_init@lcd_obj,lcd_send_command@lcd_obj
  2706   0022A6  0E38               	movlw	56
  2707   0022A8  6E11               	movwf	lcd_send_command@cmd^0,c
  2708   0022AA  ECC5  F014         	call	_lcd_send_command	;wreg free
  2709   0022AE                     
  2710                           ;ECU_Layer/Char_LCD/ecu_char_LDC.c: 56:         _delay((unsigned long)((150)*(8000000/40
      +                          00000.0)));
  2711   0022AE  0E64               	movlw	100
  2712   0022B0                     u4427:
  2713   0022B0  2EE8               	decfsz	wreg,f,c
  2714   0022B2  D7FE               	bra	u4427
  2715   0022B4  C014  F010         	movff	lcd_init@lcd_obj,lcd_send_command@lcd_obj
  2716   0022B8  0E38               	movlw	56
  2717   0022BA  6E11               	movwf	lcd_send_command@cmd^0,c
  2718   0022BC  ECC5  F014         	call	_lcd_send_command	;wreg free
  2719   0022C0  C014  F010         	movff	lcd_init@lcd_obj,lcd_send_command@lcd_obj
  2720   0022C4  0E01               	movlw	1
  2721   0022C6  6E11               	movwf	lcd_send_command@cmd^0,c
  2722   0022C8  ECC5  F014         	call	_lcd_send_command	;wreg free
  2723   0022CC  C014  F010         	movff	lcd_init@lcd_obj,lcd_send_command@lcd_obj
  2724   0022D0  0E02               	movlw	2
  2725   0022D2  6E11               	movwf	lcd_send_command@cmd^0,c
  2726   0022D4  ECC5  F014         	call	_lcd_send_command	;wreg free
  2727   0022D8  C014  F010         	movff	lcd_init@lcd_obj,lcd_send_command@lcd_obj
  2728   0022DC  0E06               	movlw	6
  2729   0022DE  6E11               	movwf	lcd_send_command@cmd^0,c
  2730   0022E0  ECC5  F014         	call	_lcd_send_command	;wreg free
  2731   0022E4  C014  F010         	movff	lcd_init@lcd_obj,lcd_send_command@lcd_obj
  2732   0022E8  0E0C               	movlw	12
  2733   0022EA  6E11               	movwf	lcd_send_command@cmd^0,c
  2734   0022EC  ECC5  F014         	call	_lcd_send_command	;wreg free
  2735   0022F0  C014  F010         	movff	lcd_init@lcd_obj,lcd_send_command@lcd_obj
  2736   0022F4  0E38               	movlw	56
  2737   0022F6  6E11               	movwf	lcd_send_command@cmd^0,c
  2738   0022F8  ECC5  F014         	call	_lcd_send_command	;wreg free
  2739   0022FC                     
  2740                           ;ECU_Layer/Char_LCD/ecu_char_LDC.c: 70:             ret=lcd_send_command(lcd_obj, 0x80);
  2741   0022FC  C014  F010         	movff	lcd_init@lcd_obj,lcd_send_command@lcd_obj
  2742   002300  0E80               	movlw	128
  2743   002302  6E11               	movwf	lcd_send_command@cmd^0,c
  2744   002304  ECC5  F014         	call	_lcd_send_command	;wreg free
  2745   002308  6E17               	movwf	lcd_init@ret^0,c
  2746   00230A                     l4295:
  2747                           
  2748                           ;ECU_Layer/Char_LCD/ecu_char_LDC.c: 74:     return ret;
  2749   00230A  5017               	movf	lcd_init@ret^0,w,c
  2750   00230C  0012               	return		;funcret
  2751   00230E                     __end_of_lcd_init:
  2752                           	callstack 0
  2753                           
  2754 ;; *************** function _lcd_send_command *****************
  2755 ;; Defined at:
  2756 ;;		line 84 in file "ECU_Layer/Char_LCD/ecu_char_LDC.c"
  2757 ;; Parameters:    Size  Location     Type
  2758 ;;  lcd_obj         1   15[COMRAM] PTR const struct .
  2759 ;;		 -> lcd_1(10), 
  2760 ;;  cmd             1   16[COMRAM] unsigned char 
  2761 ;; Auto vars:     Size  Location     Type
  2762 ;;  ret             1   18[COMRAM] unsigned char 
  2763 ;;  l_count         1   17[COMRAM] unsigned char 
  2764 ;; Return value:  Size  Location     Type
  2765 ;;                  1    wreg      unsigned char 
  2766 ;; Registers used:
  2767 ;;		wreg, fsr2l, fsr2h, status,2, status,0, prodl, prodh, cstack
  2768 ;; Tracked objects:
  2769 ;;		On entry : 0/0
  2770 ;;		On exit  : 0/0
  2771 ;;		Unchanged: 0/0
  2772 ;; Data sizes:     COMRAM   BANK0   BANK1   BANK2   BANK3   BANK4   BANK5   BANK6   BANK7   BANK8   BANK9  BANK10  BANK1
      +1  BANK12  BANK13  BANK14  BANK15
  2773 ;;      Params:         2       0       0       0       0       0       0       0       0       0       0       0       
      +0       0       0       0       0
  2774 ;;      Locals:         2       0       0       0       0       0       0       0       0       0       0       0       
      +0       0       0       0       0
  2775 ;;      Temps:          0       0       0       0       0       0       0       0       0       0       0       0       
      +0       0       0       0       0
  2776 ;;      Totals:         4       0       0       0       0       0       0       0       0       0       0       0       
      +0       0       0       0       0
  2777 ;;Total ram usage:        4 bytes
  2778 ;; Hardware stack levels used: 1
  2779 ;; Hardware stack levels required when called: 4
  2780 ;; This function calls:
  2781 ;;		_gpio_pin_write
  2782 ;;		_lcd_send_bits
  2783 ;;		_lcd_send_enable_signal
  2784 ;; This function is called by:
  2785 ;;		_lcd_init
  2786 ;;		_lcd_set_cursor_position
  2787 ;;		_lcd_send_custom_char
  2788 ;; This function uses a non-reentrant model
  2789 ;;
  2790                           
  2791                           	psect	text17
  2792   00298A                     __ptext17:
  2793                           	callstack 0
  2794   00298A                     _lcd_send_command:
  2795                           	callstack 24
  2796   00298A                     
  2797                           ;ECU_Layer/Char_LCD/ecu_char_LDC.c: 86:     uint8 l_count=0;
  2798   00298A  0E00               	movlw	0
  2799   00298C  6E12               	movwf	lcd_send_command@l_count^0,c
  2800                           
  2801                           ;ECU_Layer/Char_LCD/ecu_char_LDC.c: 87:     if(((void*)0) == lcd_obj)
  2802   00298E  5010               	movf	lcd_send_command@lcd_obj^0,w,c
  2803   002990  A4D8               	btfss	status,2,c
  2804   002992  EFCD  F014         	goto	u2941
  2805   002996  EFCF  F014         	goto	u2940
  2806   00299A                     u2941:
  2807   00299A  EFD3  F014         	goto	l4181
  2808   00299E                     u2940:
  2809   00299E                     
  2810                           ;ECU_Layer/Char_LCD/ecu_char_LDC.c: 88:     {;ECU_Layer/Char_LCD/ecu_char_LDC.c: 89:    
      +                               ret=((Std_RetrunType) 0x00);
  2811   00299E  0E00               	movlw	0
  2812   0029A0  6E13               	movwf	lcd_send_command@ret^0,c
  2813                           
  2814                           ;ECU_Layer/Char_LCD/ecu_char_LDC.c: 90:     }
  2815   0029A2  EFE6  F014         	goto	l4183
  2816   0029A6                     l4181:
  2817                           
  2818                           ;ECU_Layer/Char_LCD/ecu_char_LDC.c: 92:     {;ECU_Layer/Char_LCD/ecu_char_LDC.c: 93:    
      +                               ret=gpio_pin_write(&(lcd_obj->rs_pin),GPIO_STATE_LOW);
  2819   0029A6  C010  F002         	movff	lcd_send_command@lcd_obj,gpio_pin_write@pin_confg
  2820   0029AA  0E00               	movlw	0
  2821   0029AC  6E03               	movwf	gpio_pin_write@pin_state^0,c
  2822   0029AE  EC8C  F00F         	call	_gpio_pin_write	;wreg free
  2823   0029B2  6E13               	movwf	lcd_send_command@ret^0,c
  2824                           
  2825                           ;ECU_Layer/Char_LCD/ecu_char_LDC.c: 101:             ret=lcd_send_bits(lcd_obj,cmd);
  2826   0029B4  C010  F00A         	movff	lcd_send_command@lcd_obj,lcd_send_bits@lcd_obj
  2827   0029B8  C011  F00B         	movff	lcd_send_command@cmd,lcd_send_bits@data_cmd
  2828   0029BC  ECA0  F014         	call	_lcd_send_bits	;wreg free
  2829   0029C0  6E13               	movwf	lcd_send_command@ret^0,c
  2830                           
  2831                           ;ECU_Layer/Char_LCD/ecu_char_LDC.c: 102:             ret=lcd_send_enable_signal(lcd_obj)
      +                          ;
  2832   0029C2  C010  F00A         	movff	lcd_send_command@lcd_obj,lcd_send_enable_signal@lcd_obj
  2833   0029C6  EC22  F016         	call	_lcd_send_enable_signal	;wreg free
  2834   0029CA  6E13               	movwf	lcd_send_command@ret^0,c
  2835   0029CC                     l4183:
  2836                           
  2837                           ;ECU_Layer/Char_LCD/ecu_char_LDC.c: 107:     return ret;
  2838   0029CC  5013               	movf	lcd_send_command@ret^0,w,c
  2839   0029CE  0012               	return		;funcret
  2840   0029D0                     __end_of_lcd_send_command:
  2841                           	callstack 0
  2842                           
  2843 ;; *************** function _lcd_send_enable_signal *****************
  2844 ;; Defined at:
  2845 ;;		line 320 in file "ECU_Layer/Char_LCD/ecu_char_LDC.c"
  2846 ;; Parameters:    Size  Location     Type
  2847 ;;  lcd_obj         1    9[COMRAM] PTR const struct .
  2848 ;;		 -> lcd_1(10), 
  2849 ;; Auto vars:     Size  Location     Type
  2850 ;;  ret             1   10[COMRAM] unsigned char 
  2851 ;; Return value:  Size  Location     Type
  2852 ;;                  1    wreg      unsigned char 
  2853 ;; Registers used:
  2854 ;;		wreg, fsr2l, fsr2h, status,2, status,0, prodl, prodh, cstack
  2855 ;; Tracked objects:
  2856 ;;		On entry : 0/0
  2857 ;;		On exit  : 0/0
  2858 ;;		Unchanged: 0/0
  2859 ;; Data sizes:     COMRAM   BANK0   BANK1   BANK2   BANK3   BANK4   BANK5   BANK6   BANK7   BANK8   BANK9  BANK10  BANK1
      +1  BANK12  BANK13  BANK14  BANK15
  2860 ;;      Params:         1       0       0       0       0       0       0       0       0       0       0       0       
      +0       0       0       0       0
  2861 ;;      Locals:         1       0       0       0       0       0       0       0       0       0       0       0       
      +0       0       0       0       0
  2862 ;;      Temps:          0       0       0       0       0       0       0       0       0       0       0       0       
      +0       0       0       0       0
  2863 ;;      Totals:         2       0       0       0       0       0       0       0       0       0       0       0       
      +0       0       0       0       0
  2864 ;;Total ram usage:        2 bytes
  2865 ;; Hardware stack levels used: 1
  2866 ;; Hardware stack levels required when called: 3
  2867 ;; This function calls:
  2868 ;;		_gpio_pin_write
  2869 ;; This function is called by:
  2870 ;;		_lcd_send_command
  2871 ;;		_lcd_send_char_data
  2872 ;; This function uses a non-reentrant model
  2873 ;;
  2874                           
  2875                           	psect	text18
  2876   002C44                     __ptext18:
  2877                           	callstack 0
  2878   002C44                     _lcd_send_enable_signal:
  2879                           	callstack 24
  2880   002C44  280A               	incf	lcd_send_enable_signal@lcd_obj^0,w,c
  2881   002C46  6E02               	movwf	gpio_pin_write@pin_confg^0,c
  2882   002C48  0E01               	movlw	1
  2883   002C4A  6E03               	movwf	gpio_pin_write@pin_state^0,c
  2884   002C4C  EC8C  F00F         	call	_gpio_pin_write	;wreg free
  2885   002C50                     
  2886                           ;ECU_Layer/Char_LCD/ecu_char_LDC.c: 325:     _delay((unsigned long)((5)*(8000000/4000000
      +                          .0)));
  2887   002C50  0E03               	movlw	3
  2888   002C52                     u4437:
  2889   002C52  2EE8               	decfsz	wreg,f,c
  2890   002C54  D7FE               	bra	u4437
  2891   002C56  0000               	nop	
  2892   002C58                     
  2893                           ;ECU_Layer/Char_LCD/ecu_char_LDC.c: 326:     ret=gpio_pin_write(&(lcd_obj->en_pin),GPIO_
      +                          STATE_LOW);
  2894   002C58  280A               	incf	lcd_send_enable_signal@lcd_obj^0,w,c
  2895   002C5A  6E02               	movwf	gpio_pin_write@pin_confg^0,c
  2896   002C5C  0E00               	movlw	0
  2897   002C5E  6E03               	movwf	gpio_pin_write@pin_state^0,c
  2898   002C60  EC8C  F00F         	call	_gpio_pin_write	;wreg free
  2899   002C64  6E0B               	movwf	lcd_send_enable_signal@ret^0,c
  2900   002C66                     
  2901                           ;ECU_Layer/Char_LCD/ecu_char_LDC.c: 328:     return ret;
  2902   002C66  500B               	movf	lcd_send_enable_signal@ret^0,w,c
  2903   002C68  0012               	return		;funcret
  2904   002C6A                     __end_of_lcd_send_enable_signal:
  2905                           	callstack 0
  2906                           
  2907 ;; *************** function _lcd_send_bits *****************
  2908 ;; Defined at:
  2909 ;;		line 290 in file "ECU_Layer/Char_LCD/ecu_char_LDC.c"
  2910 ;; Parameters:    Size  Location     Type
  2911 ;;  lcd_obj         1    9[COMRAM] PTR const struct .
  2912 ;;		 -> lcd_1(10), 
  2913 ;;  data_cmd        1   10[COMRAM] unsigned char 
  2914 ;; Auto vars:     Size  Location     Type
  2915 ;;  l_count         1   14[COMRAM] unsigned char 
  2916 ;;  ret             1   13[COMRAM] unsigned char 
  2917 ;; Return value:  Size  Location     Type
  2918 ;;                  1    wreg      unsigned char 
  2919 ;; Registers used:
  2920 ;;		wreg, fsr2l, fsr2h, status,2, status,0, prodl, prodh, cstack
  2921 ;; Tracked objects:
  2922 ;;		On entry : 0/0
  2923 ;;		On exit  : 0/0
  2924 ;;		Unchanged: 0/0
  2925 ;; Data sizes:     COMRAM   BANK0   BANK1   BANK2   BANK3   BANK4   BANK5   BANK6   BANK7   BANK8   BANK9  BANK10  BANK1
      +1  BANK12  BANK13  BANK14  BANK15
  2926 ;;      Params:         2       0       0       0       0       0       0       0       0       0       0       0       
      +0       0       0       0       0
  2927 ;;      Locals:         2       0       0       0       0       0       0       0       0       0       0       0       
      +0       0       0       0       0
  2928 ;;      Temps:          2       0       0       0       0       0       0       0       0       0       0       0       
      +0       0       0       0       0
  2929 ;;      Totals:         6       0       0       0       0       0       0       0       0       0       0       0       
      +0       0       0       0       0
  2930 ;;Total ram usage:        6 bytes
  2931 ;; Hardware stack levels used: 1
  2932 ;; Hardware stack levels required when called: 3
  2933 ;; This function calls:
  2934 ;;		_gpio_pin_write
  2935 ;; This function is called by:
  2936 ;;		_lcd_send_command
  2937 ;;		_lcd_send_char_data
  2938 ;; This function uses a non-reentrant model
  2939 ;;
  2940                           
  2941                           	psect	text19
  2942   002940                     __ptext19:
  2943                           	callstack 0
  2944   002940                     _lcd_send_bits:
  2945                           	callstack 24
  2946   002940                     
  2947                           ;ECU_Layer/Char_LCD/ecu_char_LDC.c: 293:      uint8 l_count=0;
  2948   002940  0E00               	movlw	0
  2949   002942  6E0F               	movwf	lcd_send_bits@l_count^0,c
  2950                           
  2951                           ;ECU_Layer/Char_LCD/ecu_char_LDC.c: 303:             for(l_count=0;l_count < 8; l_count+
      +                          +)
  2952   002944  0E00               	movlw	0
  2953   002946  6E0F               	movwf	lcd_send_bits@l_count^0,c
  2954   002948                     l4093:
  2955                           
  2956                           ;ECU_Layer/Char_LCD/ecu_char_LDC.c: 304:             {;ECU_Layer/Char_LCD/ecu_char_LDC.c
      +                          : 305:                 ret=gpio_pin_write(&(lcd_obj->lcd_8bit_pins[l_count]),(data_cmd >
      +                          > l_count) & (uint8)0x01);
  2957   002948  500A               	movf	lcd_send_bits@lcd_obj^0,w,c
  2958   00294A  240F               	addwf	lcd_send_bits@l_count^0,w,c
  2959   00294C  0F02               	addlw	2
  2960   00294E  6E02               	movwf	gpio_pin_write@pin_confg^0,c
  2961   002950  C00F  F00C         	movff	lcd_send_bits@l_count,??_lcd_send_bits
  2962   002954  C00B  F00D         	movff	lcd_send_bits@data_cmd,??_lcd_send_bits+1
  2963   002958  2A0C               	incf	??_lcd_send_bits^0,f,c
  2964   00295A  EFB1  F014         	goto	u2804
  2965   00295E                     u2805:
  2966   00295E  90D8               	bcf	status,0,c
  2967   002960  320D               	rrcf	(??_lcd_send_bits+1)^0,f,c
  2968   002962                     u2804:
  2969   002962  2E0C               	decfsz	??_lcd_send_bits^0,f,c
  2970   002964  EFAF  F014         	goto	u2805
  2971   002968  500D               	movf	(??_lcd_send_bits+1)^0,w,c
  2972   00296A  0B01               	andlw	1
  2973   00296C  6E03               	movwf	gpio_pin_write@pin_state^0,c
  2974   00296E  EC8C  F00F         	call	_gpio_pin_write	;wreg free
  2975   002972  6E0E               	movwf	lcd_send_bits@ret^0,c
  2976   002974                     
  2977                           ;ECU_Layer/Char_LCD/ecu_char_LDC.c: 306:             }
  2978   002974  2A0F               	incf	lcd_send_bits@l_count^0,f,c
  2979   002976  0E07               	movlw	7
  2980   002978  640F               	cpfsgt	lcd_send_bits@l_count^0,c
  2981   00297A  EFC1  F014         	goto	u2811
  2982   00297E  EFC3  F014         	goto	u2810
  2983   002982                     u2811:
  2984   002982  EFA4  F014         	goto	l4093
  2985   002986                     u2810:
  2986   002986                     
  2987                           ;ECU_Layer/Char_LCD/ecu_char_LDC.c: 310:    return ret;
  2988   002986  500E               	movf	lcd_send_bits@ret^0,w,c
  2989   002988  0012               	return		;funcret
  2990   00298A                     __end_of_lcd_send_bits:
  2991                           	callstack 0
  2992                           
  2993 ;; *************** function _gpio_pin_init *****************
  2994 ;; Defined at:
  2995 ;;		line 170 in file "MCAL_Layer/GPIO/hal_gpio.c"
  2996 ;; Parameters:    Size  Location     Type
  2997 ;;  pin_confg       1    9[COMRAM] PTR const struct .
  2998 ;;		 -> lcd_1$lcd_8bit_pins(8), lcd_1(10), relay_init@pin_obj(1), led_init@pin_cfg(1), 
  2999 ;; Auto vars:     Size  Location     Type
  3000 ;;  ret             1   11[COMRAM] unsigned char 
  3001 ;; Return value:  Size  Location     Type
  3002 ;;                  1    wreg      unsigned char 
  3003 ;; Registers used:
  3004 ;;		wreg, fsr2l, fsr2h, status,2, status,0, prodl, prodh, cstack
  3005 ;; Tracked objects:
  3006 ;;		On entry : 0/0
  3007 ;;		On exit  : 0/0
  3008 ;;		Unchanged: 0/0
  3009 ;; Data sizes:     COMRAM   BANK0   BANK1   BANK2   BANK3   BANK4   BANK5   BANK6   BANK7   BANK8   BANK9  BANK10  BANK1
      +1  BANK12  BANK13  BANK14  BANK15
  3010 ;;      Params:         1       0       0       0       0       0       0       0       0       0       0       0       
      +0       0       0       0       0
  3011 ;;      Locals:         1       0       0       0       0       0       0       0       0       0       0       0       
      +0       0       0       0       0
  3012 ;;      Temps:          1       0       0       0       0       0       0       0       0       0       0       0       
      +0       0       0       0       0
  3013 ;;      Totals:         3       0       0       0       0       0       0       0       0       0       0       0       
      +0       0       0       0       0
  3014 ;;Total ram usage:        3 bytes
  3015 ;; Hardware stack levels used: 1
  3016 ;; Hardware stack levels required when called: 3
  3017 ;; This function calls:
  3018 ;;		_gpio_pin_direction_init
  3019 ;;		_gpio_pin_write
  3020 ;; This function is called by:
  3021 ;;		_lcd_init
  3022 ;;		_seven_segment_init
  3023 ;;		_dc_motor_init
  3024 ;;		_keypad_init
  3025 ;;		_led_init
  3026 ;;		_relay_init
  3027 ;; This function uses a non-reentrant model
  3028 ;;
  3029                           
  3030                           	psect	text20
  3031   00288E                     __ptext20:
  3032                           	callstack 0
  3033   00288E                     _gpio_pin_init:
  3034                           	callstack 25
  3035   00288E                     
  3036                           ;MCAL_Layer/GPIO/hal_gpio.c: 172:     if(pin_confg == ((void*)0) ||(pin_confg->pin > 8 -
      +                          1))
  3037   00288E  500A               	movf	gpio_pin_init@pin_confg^0,w,c
  3038   002890  B4D8               	btfsc	status,2,c
  3039   002892  EF4D  F014         	goto	u2921
  3040   002896  EF4F  F014         	goto	u2920
  3041   00289A                     u2921:
  3042   00289A  EF5F  F014         	goto	l4169
  3043   00289E                     u2920:
  3044   00289E  500A               	movf	gpio_pin_init@pin_confg^0,w,c
  3045   0028A0  6ED9               	movwf	fsr2l,c
  3046   0028A2  6ADA               	clrf	fsr2h,c
  3047   0028A4  30DF               	rrcf	223,w,c
  3048   0028A6  32E8               	rrcf	wreg,f,c
  3049   0028A8  32E8               	rrcf	wreg,f,c
  3050   0028AA  0B07               	andlw	7
  3051   0028AC  6E0B               	movwf	??_gpio_pin_init^0,c
  3052   0028AE  0E07               	movlw	7
  3053   0028B0  640B               	cpfsgt	??_gpio_pin_init^0,c
  3054   0028B2  EF5D  F014         	goto	u2931
  3055   0028B6  EF5F  F014         	goto	u2930
  3056   0028BA                     u2931:
  3057   0028BA  EF63  F014         	goto	l4171
  3058   0028BE                     u2930:
  3059   0028BE                     l4169:
  3060                           
  3061                           ;MCAL_Layer/GPIO/hal_gpio.c: 173:     {;MCAL_Layer/GPIO/hal_gpio.c: 174:         ret=((S
      +                          td_RetrunType) 0x00);
  3062   0028BE  0E00               	movlw	0
  3063   0028C0  6E0C               	movwf	gpio_pin_init@ret^0,c
  3064                           
  3065                           ;MCAL_Layer/GPIO/hal_gpio.c: 175:     }
  3066   0028C2  EF74  F014         	goto	l4173
  3067   0028C6                     l4171:
  3068                           
  3069                           ;MCAL_Layer/GPIO/hal_gpio.c: 177:     {;MCAL_Layer/GPIO/hal_gpio.c: 178:         ret=gpi
      +                          o_pin_direction_init(pin_confg);
  3070   0028C6  C00A  F002         	movff	gpio_pin_init@pin_confg,gpio_pin_direction_init@pin_confg
  3071   0028CA  ECF9  F00E         	call	_gpio_pin_direction_init	;wreg free
  3072   0028CE  6E0C               	movwf	gpio_pin_init@ret^0,c
  3073                           
  3074                           ;MCAL_Layer/GPIO/hal_gpio.c: 179:         ret=gpio_pin_write(pin_confg,pin_confg->state)
      +                          ;
  3075   0028D0  C00A  F002         	movff	gpio_pin_init@pin_confg,gpio_pin_write@pin_confg
  3076   0028D4  500A               	movf	gpio_pin_init@pin_confg^0,w,c
  3077   0028D6  6ED9               	movwf	fsr2l,c
  3078   0028D8  6ADA               	clrf	fsr2h,c
  3079   0028DA  0E00               	movlw	0
  3080   0028DC  BEDF               	btfsc	indf2,7,c
  3081   0028DE  0E01               	movlw	1
  3082   0028E0  6E03               	movwf	gpio_pin_write@pin_state^0,c
  3083   0028E2  EC8C  F00F         	call	_gpio_pin_write	;wreg free
  3084   0028E6  6E0C               	movwf	gpio_pin_init@ret^0,c
  3085   0028E8                     l4173:
  3086                           
  3087                           ;MCAL_Layer/GPIO/hal_gpio.c: 183:     return ret;
  3088   0028E8  500C               	movf	gpio_pin_init@ret^0,w,c
  3089   0028EA  0012               	return		;funcret
  3090   0028EC                     __end_of_gpio_pin_init:
  3091                           	callstack 0
  3092                           
  3093 ;; *************** function _gpio_pin_write *****************
  3094 ;; Defined at:
  3095 ;;		line 83 in file "MCAL_Layer/GPIO/hal_gpio.c"
  3096 ;; Parameters:    Size  Location     Type
  3097 ;;  pin_confg       1    1[COMRAM] PTR const struct .
  3098 ;;		 -> lcd_1$lcd_8bit_pins(8), lcd_1(10), relay_off@pin_obj(1), relay_on@pin_obj(1), 
  3099 ;;		 -> relay_init@pin_obj(1), led_off@pin_cfg(1), led_on@pin_cfg(1), led_init@pin_cfg(1), 
  3100 ;;  pin_state       1    2[COMRAM] enum E2982
  3101 ;; Auto vars:     Size  Location     Type
  3102 ;;  ret             1    8[COMRAM] unsigned char 
  3103 ;; Return value:  Size  Location     Type
  3104 ;;                  1    wreg      unsigned char 
  3105 ;; Registers used:
  3106 ;;		wreg, fsr2l, fsr2h, status,2, status,0, prodl, prodh
  3107 ;; Tracked objects:
  3108 ;;		On entry : 0/0
  3109 ;;		On exit  : 0/0
  3110 ;;		Unchanged: 0/0
  3111 ;; Data sizes:     COMRAM   BANK0   BANK1   BANK2   BANK3   BANK4   BANK5   BANK6   BANK7   BANK8   BANK9  BANK10  BANK1
      +1  BANK12  BANK13  BANK14  BANK15
  3112 ;;      Params:         2       0       0       0       0       0       0       0       0       0       0       0       
      +0       0       0       0       0
  3113 ;;      Locals:         1       0       0       0       0       0       0       0       0       0       0       0       
      +0       0       0       0       0
  3114 ;;      Temps:          5       0       0       0       0       0       0       0       0       0       0       0       
      +0       0       0       0       0
  3115 ;;      Totals:         8       0       0       0       0       0       0       0       0       0       0       0       
      +0       0       0       0       0
  3116 ;;Total ram usage:        8 bytes
  3117 ;; Hardware stack levels used: 1
  3118 ;; Hardware stack levels required when called: 2
  3119 ;; This function calls:
  3120 ;;		Nothing
  3121 ;; This function is called by:
  3122 ;;		_lcd_send_command
  3123 ;;		_lcd_send_char_data
  3124 ;;		_lcd_send_bits
  3125 ;;		_lcd_send_enable_signal
  3126 ;;		_gpio_pin_init
  3127 ;;		_seven_segment_display_number
  3128 ;;		_dc_motor_move_right
  3129 ;;		_dc_motor_move_left
  3130 ;;		_dc_motor_stop
  3131 ;;		_keypad_get_key_pressed
  3132 ;;		_led_on
  3133 ;;		_led_off
  3134 ;;		_relay_on
  3135 ;;		_relay_off
  3136 ;; This function uses a non-reentrant model
  3137 ;;
  3138                           
  3139                           	psect	text21
  3140   001F18                     __ptext21:
  3141                           	callstack 0
  3142   001F18                     _gpio_pin_write:
  3143                           	callstack 24
  3144   001F18                     
  3145                           ;MCAL_Layer/GPIO/hal_gpio.c: 84:     Std_RetrunType ret = ((Std_RetrunType) 0x01);
  3146   001F18  0E01               	movlw	1
  3147   001F1A  6E09               	movwf	gpio_pin_write@ret^0,c
  3148                           
  3149                           ;MCAL_Layer/GPIO/hal_gpio.c: 85:     if(pin_confg == ((void*)0) ||(pin_confg->pin > 8 -1
      +                          ))
  3150   001F1C  5002               	movf	gpio_pin_write@pin_confg^0,w,c
  3151   001F1E  B4D8               	btfsc	status,2,c
  3152   001F20  EF94  F00F         	goto	u2531
  3153   001F24  EF96  F00F         	goto	u2530
  3154   001F28                     u2531:
  3155   001F28  EFA6  F00F         	goto	l3949
  3156   001F2C                     u2530:
  3157   001F2C  5002               	movf	gpio_pin_write@pin_confg^0,w,c
  3158   001F2E  6ED9               	movwf	fsr2l,c
  3159   001F30  6ADA               	clrf	fsr2h,c
  3160   001F32  30DF               	rrcf	223,w,c
  3161   001F34  32E8               	rrcf	wreg,f,c
  3162   001F36  32E8               	rrcf	wreg,f,c
  3163   001F38  0B07               	andlw	7
  3164   001F3A  6E04               	movwf	??_gpio_pin_write^0,c
  3165   001F3C  0E07               	movlw	7
  3166   001F3E  6404               	cpfsgt	??_gpio_pin_write^0,c
  3167   001F40  EFA4  F00F         	goto	u2541
  3168   001F44  EFA6  F00F         	goto	u2540
  3169   001F48                     u2541:
  3170   001F48  EFFD  F00F         	goto	l3957
  3171   001F4C                     u2540:
  3172   001F4C                     l3949:
  3173                           
  3174                           ;MCAL_Layer/GPIO/hal_gpio.c: 86:     {;MCAL_Layer/GPIO/hal_gpio.c: 87:         ret=((Std
      +                          _RetrunType) 0x00);
  3175   001F4C  0E00               	movlw	0
  3176   001F4E  6E09               	movwf	gpio_pin_write@ret^0,c
  3177                           
  3178                           ;MCAL_Layer/GPIO/hal_gpio.c: 88:     }
  3179   001F50  EF12  F010         	goto	l3959
  3180   001F54                     l3951:
  3181                           
  3182                           ;MCAL_Layer/GPIO/hal_gpio.c: 94:                 (*lat_reg[pin_confg->port] &=~ ((uint8)
      +                           1<<pin_confg->pin));
  3183   001F54  5002               	movf	gpio_pin_write@pin_confg^0,w,c
  3184   001F56  6ED9               	movwf	fsr2l,c
  3185   001F58  6ADA               	clrf	fsr2h,c
  3186   001F5A  30DF               	rrcf	223,w,c
  3187   001F5C  32E8               	rrcf	wreg,f,c
  3188   001F5E  32E8               	rrcf	wreg,f,c
  3189   001F60  0B07               	andlw	7
  3190   001F62  6E04               	movwf	??_gpio_pin_write^0,c
  3191   001F64  0E01               	movlw	1
  3192   001F66  6E05               	movwf	(??_gpio_pin_write+1)^0,c
  3193   001F68  2A04               	incf	??_gpio_pin_write^0,f,c
  3194   001F6A  EFB9  F00F         	goto	u2554
  3195   001F6E                     u2555:
  3196   001F6E  90D8               	bcf	status,0,c
  3197   001F70  3605               	rlcf	(??_gpio_pin_write+1)^0,f,c
  3198   001F72                     u2554:
  3199   001F72  2E04               	decfsz	??_gpio_pin_write^0,f,c
  3200   001F74  EFB7  F00F         	goto	u2555
  3201   001F78  5005               	movf	(??_gpio_pin_write+1)^0,w,c
  3202   001F7A  0AFF               	xorlw	255
  3203   001F7C  6E06               	movwf	(??_gpio_pin_write+2)^0,c
  3204   001F7E  5002               	movf	gpio_pin_write@pin_confg^0,w,c
  3205   001F80  6ED9               	movwf	fsr2l,c
  3206   001F82  6ADA               	clrf	fsr2h,c
  3207   001F84  50DF               	movf	223,w,c
  3208   001F86  0B07               	andlw	7
  3209   001F88  0D02               	mullw	2
  3210   001F8A  50F3               	movf	243,w,c
  3211   001F8C  0F8A               	addlw	low _lat_reg
  3212   001F8E  6ED9               	movwf	fsr2l,c
  3213   001F90  6ADA               	clrf	fsr2h,c
  3214   001F92  CFDE F007          	movff	postinc2,??_gpio_pin_write+3
  3215   001F96  CFDD F008          	movff	postdec2,??_gpio_pin_write+4
  3216   001F9A  C007  FFD9         	movff	??_gpio_pin_write+3,fsr2l
  3217   001F9E  C008  FFDA         	movff	??_gpio_pin_write+4,fsr2h
  3218   001FA2  5006               	movf	(??_gpio_pin_write+2)^0,w,c
  3219   001FA4  16DF               	andwf	indf2,f,c
  3220                           
  3221                           ;MCAL_Layer/GPIO/hal_gpio.c: 95:                 break;
  3222   001FA6  EF12  F010         	goto	l3959
  3223   001FAA                     l3953:
  3224                           
  3225                           ;MCAL_Layer/GPIO/hal_gpio.c: 97:                 (*lat_reg[pin_confg->port] |= ((uint8) 
      +                          1<<pin_confg->pin));
  3226   001FAA  5002               	movf	gpio_pin_write@pin_confg^0,w,c
  3227   001FAC  6ED9               	movwf	fsr2l,c
  3228   001FAE  6ADA               	clrf	fsr2h,c
  3229   001FB0  30DF               	rrcf	223,w,c
  3230   001FB2  32E8               	rrcf	wreg,f,c
  3231   001FB4  32E8               	rrcf	wreg,f,c
  3232   001FB6  0B07               	andlw	7
  3233   001FB8  6E04               	movwf	??_gpio_pin_write^0,c
  3234   001FBA  0E01               	movlw	1
  3235   001FBC  6E05               	movwf	(??_gpio_pin_write+1)^0,c
  3236   001FBE  2A04               	incf	??_gpio_pin_write^0,f,c
  3237   001FC0  EFE4  F00F         	goto	u2564
  3238   001FC4                     u2565:
  3239   001FC4  90D8               	bcf	status,0,c
  3240   001FC6  3605               	rlcf	(??_gpio_pin_write+1)^0,f,c
  3241   001FC8                     u2564:
  3242   001FC8  2E04               	decfsz	??_gpio_pin_write^0,f,c
  3243   001FCA  EFE2  F00F         	goto	u2565
  3244   001FCE  5002               	movf	gpio_pin_write@pin_confg^0,w,c
  3245   001FD0  6ED9               	movwf	fsr2l,c
  3246   001FD2  6ADA               	clrf	fsr2h,c
  3247   001FD4  50DF               	movf	223,w,c
  3248   001FD6  0B07               	andlw	7
  3249   001FD8  0D02               	mullw	2
  3250   001FDA  50F3               	movf	243,w,c
  3251   001FDC  0F8A               	addlw	low _lat_reg
  3252   001FDE  6ED9               	movwf	fsr2l,c
  3253   001FE0  6ADA               	clrf	fsr2h,c
  3254   001FE2  CFDE F006          	movff	postinc2,??_gpio_pin_write+2
  3255   001FE6  CFDD F007          	movff	postdec2,??_gpio_pin_write+3
  3256   001FEA  C006  FFD9         	movff	??_gpio_pin_write+2,fsr2l
  3257   001FEE  C007  FFDA         	movff	??_gpio_pin_write+3,fsr2h
  3258   001FF2  5005               	movf	(??_gpio_pin_write+1)^0,w,c
  3259   001FF4  12DF               	iorwf	indf2,f,c
  3260                           
  3261                           ;MCAL_Layer/GPIO/hal_gpio.c: 98:                 break;
  3262   001FF6  EF12  F010         	goto	l3959
  3263   001FFA                     l3957:
  3264   001FFA  5003               	movf	gpio_pin_write@pin_state^0,w,c
  3265   001FFC  6E04               	movwf	??_gpio_pin_write^0,c
  3266   001FFE  6A05               	clrf	(??_gpio_pin_write+1)^0,c
  3267                           
  3268                           ; Switch on 2 bytes has been partitioned into a top level switch of size 1, and 1 sub-sw
      +                          itches
  3269                           ; Switch size 1, requested type "simple"
  3270                           ; Number of cases is 1, Range of values is 0 to 0
  3271                           ; switch strategies available:
  3272                           ; Name         Instructions Cycles
  3273                           ; simple_byte            4     3 (average)
  3274                           ;	Chosen strategy is simple_byte
  3275   002000  5005               	movf	(??_gpio_pin_write+1)^0,w,c
  3276   002002  0A00               	xorlw	0	; case 0
  3277   002004  B4D8               	btfsc	status,2,c
  3278   002006  EF07  F010         	goto	l5385
  3279   00200A  EFA6  F00F         	goto	l3949
  3280   00200E                     l5385:
  3281                           
  3282                           ; Switch size 1, requested type "simple"
  3283                           ; Number of cases is 2, Range of values is 0 to 1
  3284                           ; switch strategies available:
  3285                           ; Name         Instructions Cycles
  3286                           ; simple_byte            7     4 (average)
  3287                           ;	Chosen strategy is simple_byte
  3288   00200E  5004               	movf	??_gpio_pin_write^0,w,c
  3289   002010  0A00               	xorlw	0	; case 0
  3290   002012  B4D8               	btfsc	status,2,c
  3291   002014  EFAA  F00F         	goto	l3951
  3292   002018  0A01               	xorlw	1	; case 1
  3293   00201A  B4D8               	btfsc	status,2,c
  3294   00201C  EFD5  F00F         	goto	l3953
  3295   002020  EFA6  F00F         	goto	l3949
  3296   002024                     l3959:
  3297                           
  3298                           ;MCAL_Layer/GPIO/hal_gpio.c: 106:     return ret;
  3299   002024  5009               	movf	gpio_pin_write@ret^0,w,c
  3300   002026  0012               	return		;funcret
  3301   002028                     __end_of_gpio_pin_write:
  3302                           	callstack 0
  3303                           
  3304 ;; *************** function _gpio_pin_direction_init *****************
  3305 ;; Defined at:
  3306 ;;		line 19 in file "MCAL_Layer/GPIO/hal_gpio.c"
  3307 ;; Parameters:    Size  Location     Type
  3308 ;;  pin_confg       1    1[COMRAM] PTR const struct .
  3309 ;;		 -> lcd_1$lcd_8bit_pins(8), lcd_1(10), relay_init@pin_obj(1), led_init@pin_cfg(1), 
  3310 ;; Auto vars:     Size  Location     Type
  3311 ;;  ret             1    7[COMRAM] unsigned char 
  3312 ;; Return value:  Size  Location     Type
  3313 ;;                  1    wreg      unsigned char 
  3314 ;; Registers used:
  3315 ;;		wreg, fsr2l, fsr2h, status,2, status,0, prodl, prodh
  3316 ;; Tracked objects:
  3317 ;;		On entry : 0/0
  3318 ;;		On exit  : 0/0
  3319 ;;		Unchanged: 0/0
  3320 ;; Data sizes:     COMRAM   BANK0   BANK1   BANK2   BANK3   BANK4   BANK5   BANK6   BANK7   BANK8   BANK9  BANK10  BANK1
      +1  BANK12  BANK13  BANK14  BANK15
  3321 ;;      Params:         1       0       0       0       0       0       0       0       0       0       0       0       
      +0       0       0       0       0
  3322 ;;      Locals:         1       0       0       0       0       0       0       0       0       0       0       0       
      +0       0       0       0       0
  3323 ;;      Temps:          5       0       0       0       0       0       0       0       0       0       0       0       
      +0       0       0       0       0
  3324 ;;      Totals:         7       0       0       0       0       0       0       0       0       0       0       0       
      +0       0       0       0       0
  3325 ;;Total ram usage:        7 bytes
  3326 ;; Hardware stack levels used: 1
  3327 ;; Hardware stack levels required when called: 2
  3328 ;; This function calls:
  3329 ;;		Nothing
  3330 ;; This function is called by:
  3331 ;;		_gpio_pin_init
  3332 ;;		_button_init
  3333 ;;		_keypad_init
  3334 ;;		_interrupt_RBx_Init
  3335 ;;		_interrupt_INTx_pin_cfg
  3336 ;; This function uses a non-reentrant model
  3337 ;;
  3338                           
  3339                           	psect	text22
  3340   001DF2                     __ptext22:
  3341                           	callstack 0
  3342   001DF2                     _gpio_pin_direction_init:
  3343                           	callstack 25
  3344   001DF2                     
  3345                           ;MCAL_Layer/GPIO/hal_gpio.c: 20:     Std_RetrunType ret = ((Std_RetrunType) 0x01);
  3346   001DF2  0E01               	movlw	1
  3347   001DF4  6E08               	movwf	gpio_pin_direction_init@ret^0,c
  3348                           
  3349                           ;MCAL_Layer/GPIO/hal_gpio.c: 21:     if(pin_confg == ((void*)0) || (pin_confg->pin > 8 -
      +                          1))
  3350   001DF6  5002               	movf	gpio_pin_direction_init@pin_confg^0,w,c
  3351   001DF8  B4D8               	btfsc	status,2,c
  3352   001DFA  EF01  F00F         	goto	u2741
  3353   001DFE  EF03  F00F         	goto	u2740
  3354   001E02                     u2741:
  3355   001E02  EF13  F00F         	goto	l4069
  3356   001E06                     u2740:
  3357   001E06  5002               	movf	gpio_pin_direction_init@pin_confg^0,w,c
  3358   001E08  6ED9               	movwf	fsr2l,c
  3359   001E0A  6ADA               	clrf	fsr2h,c
  3360   001E0C  30DF               	rrcf	223,w,c
  3361   001E0E  32E8               	rrcf	wreg,f,c
  3362   001E10  32E8               	rrcf	wreg,f,c
  3363   001E12  0B07               	andlw	7
  3364   001E14  6E03               	movwf	??_gpio_pin_direction_init^0,c
  3365   001E16  0E07               	movlw	7
  3366   001E18  6403               	cpfsgt	??_gpio_pin_direction_init^0,c
  3367   001E1A  EF11  F00F         	goto	u2751
  3368   001E1E  EF13  F00F         	goto	u2750
  3369   001E22                     u2751:
  3370   001E22  EF6A  F00F         	goto	l4077
  3371   001E26                     u2750:
  3372   001E26                     l4069:
  3373                           
  3374                           ;MCAL_Layer/GPIO/hal_gpio.c: 22:     {;MCAL_Layer/GPIO/hal_gpio.c: 23:         ret=((Std
      +                          _RetrunType) 0x00);
  3375   001E26  0E00               	movlw	0
  3376   001E28  6E08               	movwf	gpio_pin_direction_init@ret^0,c
  3377                           
  3378                           ;MCAL_Layer/GPIO/hal_gpio.c: 24:     }
  3379   001E2A  EF8A  F00F         	goto	l4079
  3380   001E2E                     l4071:
  3381                           
  3382                           ;MCAL_Layer/GPIO/hal_gpio.c: 30:                 (*tris_reg[pin_confg->port] &=~ ((uint8
      +                          ) 1<<pin_confg->pin));
  3383   001E2E  5002               	movf	gpio_pin_direction_init@pin_confg^0,w,c
  3384   001E30  6ED9               	movwf	fsr2l,c
  3385   001E32  6ADA               	clrf	fsr2h,c
  3386   001E34  30DF               	rrcf	223,w,c
  3387   001E36  32E8               	rrcf	wreg,f,c
  3388   001E38  32E8               	rrcf	wreg,f,c
  3389   001E3A  0B07               	andlw	7
  3390   001E3C  6E03               	movwf	??_gpio_pin_direction_init^0,c
  3391   001E3E  0E01               	movlw	1
  3392   001E40  6E04               	movwf	(??_gpio_pin_direction_init+1)^0,c
  3393   001E42  2A03               	incf	??_gpio_pin_direction_init^0,f,c
  3394   001E44  EF26  F00F         	goto	u2764
  3395   001E48                     u2765:
  3396   001E48  90D8               	bcf	status,0,c
  3397   001E4A  3604               	rlcf	(??_gpio_pin_direction_init+1)^0,f,c
  3398   001E4C                     u2764:
  3399   001E4C  2E03               	decfsz	??_gpio_pin_direction_init^0,f,c
  3400   001E4E  EF24  F00F         	goto	u2765
  3401   001E52  5004               	movf	(??_gpio_pin_direction_init+1)^0,w,c
  3402   001E54  0AFF               	xorlw	255
  3403   001E56  6E05               	movwf	(??_gpio_pin_direction_init+2)^0,c
  3404   001E58  5002               	movf	gpio_pin_direction_init@pin_confg^0,w,c
  3405   001E5A  6ED9               	movwf	fsr2l,c
  3406   001E5C  6ADA               	clrf	fsr2h,c
  3407   001E5E  50DF               	movf	223,w,c
  3408   001E60  0B07               	andlw	7
  3409   001E62  0D02               	mullw	2
  3410   001E64  50F3               	movf	243,w,c
  3411   001E66  0F94               	addlw	low _tris_reg
  3412   001E68  6ED9               	movwf	fsr2l,c
  3413   001E6A  6ADA               	clrf	fsr2h,c
  3414   001E6C  CFDE F006          	movff	postinc2,??_gpio_pin_direction_init+3
  3415   001E70  CFDD F007          	movff	postdec2,??_gpio_pin_direction_init+4
  3416   001E74  C006  FFD9         	movff	??_gpio_pin_direction_init+3,fsr2l
  3417   001E78  C007  FFDA         	movff	??_gpio_pin_direction_init+4,fsr2h
  3418   001E7C  5005               	movf	(??_gpio_pin_direction_init+2)^0,w,c
  3419   001E7E  16DF               	andwf	indf2,f,c
  3420                           
  3421                           ;MCAL_Layer/GPIO/hal_gpio.c: 31:                 break;
  3422   001E80  EF8A  F00F         	goto	l4079
  3423   001E84                     l4073:
  3424                           
  3425                           ;MCAL_Layer/GPIO/hal_gpio.c: 33:                 (*tris_reg[pin_confg->port] |= ((uint8)
      +                           1<<pin_confg->pin));
  3426   001E84  5002               	movf	gpio_pin_direction_init@pin_confg^0,w,c
  3427   001E86  6ED9               	movwf	fsr2l,c
  3428   001E88  6ADA               	clrf	fsr2h,c
  3429   001E8A  30DF               	rrcf	223,w,c
  3430   001E8C  32E8               	rrcf	wreg,f,c
  3431   001E8E  32E8               	rrcf	wreg,f,c
  3432   001E90  0B07               	andlw	7
  3433   001E92  6E03               	movwf	??_gpio_pin_direction_init^0,c
  3434   001E94  0E01               	movlw	1
  3435   001E96  6E04               	movwf	(??_gpio_pin_direction_init+1)^0,c
  3436   001E98  2A03               	incf	??_gpio_pin_direction_init^0,f,c
  3437   001E9A  EF51  F00F         	goto	u2774
  3438   001E9E                     u2775:
  3439   001E9E  90D8               	bcf	status,0,c
  3440   001EA0  3604               	rlcf	(??_gpio_pin_direction_init+1)^0,f,c
  3441   001EA2                     u2774:
  3442   001EA2  2E03               	decfsz	??_gpio_pin_direction_init^0,f,c
  3443   001EA4  EF4F  F00F         	goto	u2775
  3444   001EA8  5002               	movf	gpio_pin_direction_init@pin_confg^0,w,c
  3445   001EAA  6ED9               	movwf	fsr2l,c
  3446   001EAC  6ADA               	clrf	fsr2h,c
  3447   001EAE  50DF               	movf	223,w,c
  3448   001EB0  0B07               	andlw	7
  3449   001EB2  0D02               	mullw	2
  3450   001EB4  50F3               	movf	243,w,c
  3451   001EB6  0F94               	addlw	low _tris_reg
  3452   001EB8  6ED9               	movwf	fsr2l,c
  3453   001EBA  6ADA               	clrf	fsr2h,c
  3454   001EBC  CFDE F005          	movff	postinc2,??_gpio_pin_direction_init+2
  3455   001EC0  CFDD F006          	movff	postdec2,??_gpio_pin_direction_init+3
  3456   001EC4  C005  FFD9         	movff	??_gpio_pin_direction_init+2,fsr2l
  3457   001EC8  C006  FFDA         	movff	??_gpio_pin_direction_init+3,fsr2h
  3458   001ECC  5004               	movf	(??_gpio_pin_direction_init+1)^0,w,c
  3459   001ECE  12DF               	iorwf	indf2,f,c
  3460                           
  3461                           ;MCAL_Layer/GPIO/hal_gpio.c: 34:                 break;
  3462   001ED0  EF8A  F00F         	goto	l4079
  3463   001ED4                     l4077:
  3464   001ED4  5002               	movf	gpio_pin_direction_init@pin_confg^0,w,c
  3465   001ED6  6ED9               	movwf	fsr2l,c
  3466   001ED8  6ADA               	clrf	fsr2h,c
  3467   001EDA  BCDF               	btfsc	indf2,6,c
  3468   001EDC  EF72  F00F         	goto	u2781
  3469   001EE0  EF75  F00F         	goto	u2780
  3470   001EE4                     u2781:
  3471   001EE4  0E01               	movlw	1
  3472   001EE6  EF76  F00F         	goto	u2790
  3473   001EEA                     u2780:
  3474   001EEA  0E00               	movlw	0
  3475   001EEC                     u2790:
  3476   001EEC  6E03               	movwf	??_gpio_pin_direction_init^0,c
  3477   001EEE  6A04               	clrf	(??_gpio_pin_direction_init+1)^0,c
  3478                           
  3479                           ; Switch on 2 bytes has been partitioned into a top level switch of size 1, and 1 sub-sw
      +                          itches
  3480                           ; Switch size 1, requested type "simple"
  3481                           ; Number of cases is 1, Range of values is 0 to 0
  3482                           ; switch strategies available:
  3483                           ; Name         Instructions Cycles
  3484                           ; simple_byte            4     3 (average)
  3485                           ;	Chosen strategy is simple_byte
  3486   001EF0  5004               	movf	(??_gpio_pin_direction_init+1)^0,w,c
  3487   001EF2  0A00               	xorlw	0	; case 0
  3488   001EF4  B4D8               	btfsc	status,2,c
  3489   001EF6  EF7F  F00F         	goto	l5387
  3490   001EFA  EF13  F00F         	goto	l4069
  3491   001EFE                     l5387:
  3492                           
  3493                           ; Switch size 1, requested type "simple"
  3494                           ; Number of cases is 2, Range of values is 0 to 1
  3495                           ; switch strategies available:
  3496                           ; Name         Instructions Cycles
  3497                           ; simple_byte            7     4 (average)
  3498                           ;	Chosen strategy is simple_byte
  3499   001EFE  5003               	movf	??_gpio_pin_direction_init^0,w,c
  3500   001F00  0A00               	xorlw	0	; case 0
  3501   001F02  B4D8               	btfsc	status,2,c
  3502   001F04  EF17  F00F         	goto	l4071
  3503   001F08  0A01               	xorlw	1	; case 1
  3504   001F0A  B4D8               	btfsc	status,2,c
  3505   001F0C  EF42  F00F         	goto	l4073
  3506   001F10  EF13  F00F         	goto	l4069
  3507   001F14                     l4079:
  3508                           
  3509                           ;MCAL_Layer/GPIO/hal_gpio.c: 43:     return ret;
  3510   001F14  5008               	movf	gpio_pin_direction_init@ret^0,w,c
  3511   001F16  0012               	return		;funcret
  3512   001F18                     __end_of_gpio_pin_direction_init:
  3513                           	callstack 0
  3514                           
  3515 ;; *************** function _ADC_Init *****************
  3516 ;; Defined at:
  3517 ;;		line 30 in file "MCAL_Layer/ADC/hal_adc.c"
  3518 ;; Parameters:    Size  Location     Type
  3519 ;;  adc_obj         1    4[COMRAM] PTR const struct .
  3520 ;;		 -> adc_1(4), 
  3521 ;; Auto vars:     Size  Location     Type
  3522 ;;  ret             1    6[COMRAM] unsigned char 
  3523 ;; Return value:  Size  Location     Type
  3524 ;;                  1    wreg      unsigned char 
  3525 ;; Registers used:
  3526 ;;		wreg, fsr2l, fsr2h, status,2, status,0, cstack
  3527 ;; Tracked objects:
  3528 ;;		On entry : 0/0
  3529 ;;		On exit  : 0/0
  3530 ;;		Unchanged: 0/0
  3531 ;; Data sizes:     COMRAM   BANK0   BANK1   BANK2   BANK3   BANK4   BANK5   BANK6   BANK7   BANK8   BANK9  BANK10  BANK1
      +1  BANK12  BANK13  BANK14  BANK15
  3532 ;;      Params:         1       0       0       0       0       0       0       0       0       0       0       0       
      +0       0       0       0       0
  3533 ;;      Locals:         1       0       0       0       0       0       0       0       0       0       0       0       
      +0       0       0       0       0
  3534 ;;      Temps:          1       0       0       0       0       0       0       0       0       0       0       0       
      +0       0       0       0       0
  3535 ;;      Totals:         3       0       0       0       0       0       0       0       0       0       0       0       
      +0       0       0       0       0
  3536 ;;Total ram usage:        3 bytes
  3537 ;; Hardware stack levels used: 1
  3538 ;; Hardware stack levels required when called: 3
  3539 ;; This function calls:
  3540 ;;		_configure_adc_channel_port
  3541 ;;		_configure_adc_result_format
  3542 ;;		_configure_adc_volatage_ref
  3543 ;; This function is called by:
  3544 ;;		_app_init
  3545 ;; This function uses a non-reentrant model
  3546 ;;
  3547                           
  3548                           	psect	text23
  3549   002686                     __ptext23:
  3550                           	callstack 0
  3551   002686                     _ADC_Init:
  3552                           	callstack 26
  3553   002686                     
  3554                           ;MCAL_Layer/ADC/hal_adc.c: 32:     if(adc_obj == ((void*)0) )
  3555   002686  5005               	movf	ADC_Init@adc_obj^0,w,c
  3556   002688  A4D8               	btfss	status,2,c
  3557   00268A  EF49  F013         	goto	u3091
  3558   00268E  EF4B  F013         	goto	u3090
  3559   002692                     u3091:
  3560   002692  EF4F  F013         	goto	l1228
  3561   002696                     u3090:
  3562   002696                     
  3563                           ;MCAL_Layer/ADC/hal_adc.c: 33:     {;MCAL_Layer/ADC/hal_adc.c: 34:         ret=((Std_Ret
      +                          runType) 0x00);
  3564   002696  0E00               	movlw	0
  3565   002698  6E07               	movwf	ADC_Init@ret^0,c
  3566                           
  3567                           ;MCAL_Layer/ADC/hal_adc.c: 35:     }
  3568   00269A  EF8A  F013         	goto	l4375
  3569   00269E                     l1228:
  3570                           
  3571                           ;MCAL_Layer/ADC/hal_adc.c: 37:     {;MCAL_Layer/ADC/hal_adc.c: 38:         (ADCON0bits.A
      +                          DON=0);
  3572   00269E  90C2               	bcf	194,0,c	;volatile
  3573   0026A0                     
  3574                           ;MCAL_Layer/ADC/hal_adc.c: 39:         ADCON2bits.ADCS=adc_obj->conv_clk;
  3575   0026A0  5005               	movf	ADC_Init@adc_obj^0,w,c
  3576   0026A2  6ED9               	movwf	fsr2l,c
  3577   0026A4  6ADA               	clrf	fsr2h,c
  3578   0026A6  50DF               	movf	indf2,w,c
  3579   0026A8  6E06               	movwf	??_ADC_Init^0,c
  3580   0026AA  50C0               	movf	192,w,c	;volatile
  3581   0026AC  1806               	xorwf	??_ADC_Init^0,w,c
  3582   0026AE  0BF8               	andlw	-8
  3583   0026B0  1806               	xorwf	??_ADC_Init^0,w,c
  3584   0026B2  6EC0               	movwf	192,c	;volatile
  3585                           
  3586                           ;MCAL_Layer/ADC/hal_adc.c: 40:         ADCON2bits.ACQT=adc_obj->acqui_time;
  3587   0026B4  5005               	movf	ADC_Init@adc_obj^0,w,c
  3588   0026B6  6ED9               	movwf	fsr2l,c
  3589   0026B8  6ADA               	clrf	fsr2h,c
  3590   0026BA  0E01               	movlw	1
  3591   0026BC  26D9               	addwf	fsr2l,f,c
  3592   0026BE  50DF               	movf	indf2,w,c
  3593   0026C0  6E06               	movwf	??_ADC_Init^0,c
  3594   0026C2  4606               	rlncf	??_ADC_Init^0,f,c
  3595   0026C4  4606               	rlncf	??_ADC_Init^0,f,c
  3596   0026C6  4606               	rlncf	??_ADC_Init^0,f,c
  3597   0026C8  50C0               	movf	192,w,c	;volatile
  3598   0026CA  1806               	xorwf	??_ADC_Init^0,w,c
  3599   0026CC  0BC7               	andlw	-57
  3600   0026CE  1806               	xorwf	??_ADC_Init^0,w,c
  3601   0026D0  6EC0               	movwf	192,c	;volatile
  3602                           
  3603                           ;MCAL_Layer/ADC/hal_adc.c: 41:         ADCON0bits.CHS=adc_obj->chnl;
  3604   0026D2  5005               	movf	ADC_Init@adc_obj^0,w,c
  3605   0026D4  6ED9               	movwf	fsr2l,c
  3606   0026D6  6ADA               	clrf	fsr2h,c
  3607   0026D8  0E02               	movlw	2
  3608   0026DA  26D9               	addwf	fsr2l,f,c
  3609   0026DC  50DF               	movf	indf2,w,c
  3610   0026DE  6E06               	movwf	??_ADC_Init^0,c
  3611   0026E0  4606               	rlncf	??_ADC_Init^0,f,c
  3612   0026E2  4606               	rlncf	??_ADC_Init^0,f,c
  3613   0026E4  50C2               	movf	194,w,c	;volatile
  3614   0026E6  1806               	xorwf	??_ADC_Init^0,w,c
  3615   0026E8  0BC3               	andlw	-61
  3616   0026EA  1806               	xorwf	??_ADC_Init^0,w,c
  3617   0026EC  6EC2               	movwf	194,c	;volatile
  3618   0026EE                     
  3619                           ;MCAL_Layer/ADC/hal_adc.c: 42:         configure_adc_channel_port(adc_obj->chnl);
  3620   0026EE  5005               	movf	ADC_Init@adc_obj^0,w,c
  3621   0026F0  6ED9               	movwf	fsr2l,c
  3622   0026F2  6ADA               	clrf	fsr2h,c
  3623   0026F4  0E02               	movlw	2
  3624   0026F6  26D9               	addwf	fsr2l,f,c
  3625   0026F8  50DF               	movf	indf2,w,c
  3626   0026FA  ECE9  F011         	call	_configure_adc_channel_port
  3627   0026FE                     
  3628                           ;MCAL_Layer/ADC/hal_adc.c: 63:         configure_adc_volatage_ref(adc_obj);
  3629   0026FE  C005  F002         	movff	ADC_Init@adc_obj,configure_adc_volatage_ref@adc_obj
  3630   002702  EC6A  F015         	call	_configure_adc_volatage_ref	;wreg free
  3631   002706                     
  3632                           ;MCAL_Layer/ADC/hal_adc.c: 64:         configure_adc_result_format(adc_obj);
  3633   002706  C005  F002         	movff	ADC_Init@adc_obj,configure_adc_result_format@adc_obj
  3634   00270A  EC89  F015         	call	_configure_adc_result_format	;wreg free
  3635   00270E                     
  3636                           ;MCAL_Layer/ADC/hal_adc.c: 66:         (ADCON0bits.ADON=1);
  3637   00270E  80C2               	bsf	194,0,c	;volatile
  3638   002710                     
  3639                           ;MCAL_Layer/ADC/hal_adc.c: 68:         ret=((Std_RetrunType) 0x01);
  3640   002710  0E01               	movlw	1
  3641   002712  6E07               	movwf	ADC_Init@ret^0,c
  3642   002714                     l4375:
  3643                           
  3644                           ;MCAL_Layer/ADC/hal_adc.c: 72:     return ret;
  3645   002714  5007               	movf	ADC_Init@ret^0,w,c
  3646   002716  0012               	return		;funcret
  3647   002718                     __end_of_ADC_Init:
  3648                           	callstack 0
  3649                           
  3650 ;; *************** function _configure_adc_volatage_ref *****************
  3651 ;; Defined at:
  3652 ;;		line 268 in file "MCAL_Layer/ADC/hal_adc.c"
  3653 ;; Parameters:    Size  Location     Type
  3654 ;;  adc_obj         1    1[COMRAM] PTR const struct .
  3655 ;;		 -> adc_1(4), 
  3656 ;; Auto vars:     Size  Location     Type
  3657 ;;		None
  3658 ;; Return value:  Size  Location     Type
  3659 ;;                  1    wreg      void 
  3660 ;; Registers used:
  3661 ;;		wreg, fsr2l, fsr2h, status,2, status,0
  3662 ;; Tracked objects:
  3663 ;;		On entry : 0/0
  3664 ;;		On exit  : 0/0
  3665 ;;		Unchanged: 0/0
  3666 ;; Data sizes:     COMRAM   BANK0   BANK1   BANK2   BANK3   BANK4   BANK5   BANK6   BANK7   BANK8   BANK9  BANK10  BANK1
      +1  BANK12  BANK13  BANK14  BANK15
  3667 ;;      Params:         1       0       0       0       0       0       0       0       0       0       0       0       
      +0       0       0       0       0
  3668 ;;      Locals:         0       0       0       0       0       0       0       0       0       0       0       0       
      +0       0       0       0       0
  3669 ;;      Temps:          0       0       0       0       0       0       0       0       0       0       0       0       
      +0       0       0       0       0
  3670 ;;      Totals:         1       0       0       0       0       0       0       0       0       0       0       0       
      +0       0       0       0       0
  3671 ;;Total ram usage:        1 bytes
  3672 ;; Hardware stack levels used: 1
  3673 ;; Hardware stack levels required when called: 2
  3674 ;; This function calls:
  3675 ;;		Nothing
  3676 ;; This function is called by:
  3677 ;;		_ADC_Init
  3678 ;; This function uses a non-reentrant model
  3679 ;;
  3680                           
  3681                           	psect	text24
  3682   002AD4                     __ptext24:
  3683                           	callstack 0
  3684   002AD4                     _configure_adc_volatage_ref:
  3685                           	callstack 26
  3686   002AD4                     
  3687                           ;MCAL_Layer/ADC/hal_adc.c: 269:     if(adc_obj->voltage_cfg == 1U){
  3688   002AD4  5002               	movf	configure_adc_volatage_ref@adc_obj^0,w,c
  3689   002AD6  6ED9               	movwf	fsr2l,c
  3690   002AD8  6ADA               	clrf	fsr2h,c
  3691   002ADA  0E03               	movlw	3
  3692   002ADC  26D9               	addwf	fsr2l,f,c
  3693   002ADE  A2DF               	btfss	indf2,1,c
  3694   002AE0  EF74  F015         	goto	u2961
  3695   002AE4  EF76  F015         	goto	u2960
  3696   002AE8                     u2961:
  3697   002AE8  EF7A  F015         	goto	l4235
  3698   002AEC                     u2960:
  3699   002AEC  8AC1               	bsf	193,5,c	;volatile
  3700   002AEE  88C1               	bsf	193,4,c	;volatile
  3701   002AF0  EF88  F015         	goto	l1283
  3702   002AF4                     l4235:
  3703   002AF4  5002               	movf	configure_adc_volatage_ref@adc_obj^0,w,c
  3704   002AF6  6ED9               	movwf	fsr2l,c
  3705   002AF8  6ADA               	clrf	fsr2h,c
  3706   002AFA  0E03               	movlw	3
  3707   002AFC  26D9               	addwf	fsr2l,f,c
  3708   002AFE  B2DF               	btfsc	indf2,1,c
  3709   002B00  EF84  F015         	goto	u2971
  3710   002B04  EF86  F015         	goto	u2970
  3711   002B08                     u2971:
  3712   002B08  EF88  F015         	goto	l1283
  3713   002B0C                     u2970:
  3714   002B0C  9AC1               	bcf	193,5,c	;volatile
  3715   002B0E  98C1               	bcf	193,4,c	;volatile
  3716   002B10                     l1283:
  3717   002B10  0012               	return		;funcret
  3718   002B12                     __end_of_configure_adc_volatage_ref:
  3719                           	callstack 0
  3720                           
  3721 ;; *************** function _configure_adc_result_format *****************
  3722 ;; Defined at:
  3723 ;;		line 282 in file "MCAL_Layer/ADC/hal_adc.c"
  3724 ;; Parameters:    Size  Location     Type
  3725 ;;  adc_obj         1    1[COMRAM] PTR const struct .
  3726 ;;		 -> adc_1(4), 
  3727 ;; Auto vars:     Size  Location     Type
  3728 ;;		None
  3729 ;; Return value:  Size  Location     Type
  3730 ;;                  1    wreg      void 
  3731 ;; Registers used:
  3732 ;;		wreg, fsr2l, fsr2h, status,2, status,0
  3733 ;; Tracked objects:
  3734 ;;		On entry : 0/0
  3735 ;;		On exit  : 0/0
  3736 ;;		Unchanged: 0/0
  3737 ;; Data sizes:     COMRAM   BANK0   BANK1   BANK2   BANK3   BANK4   BANK5   BANK6   BANK7   BANK8   BANK9  BANK10  BANK1
      +1  BANK12  BANK13  BANK14  BANK15
  3738 ;;      Params:         1       0       0       0       0       0       0       0       0       0       0       0       
      +0       0       0       0       0
  3739 ;;      Locals:         0       0       0       0       0       0       0       0       0       0       0       0       
      +0       0       0       0       0
  3740 ;;      Temps:          0       0       0       0       0       0       0       0       0       0       0       0       
      +0       0       0       0       0
  3741 ;;      Totals:         1       0       0       0       0       0       0       0       0       0       0       0       
      +0       0       0       0       0
  3742 ;;Total ram usage:        1 bytes
  3743 ;; Hardware stack levels used: 1
  3744 ;; Hardware stack levels required when called: 2
  3745 ;; This function calls:
  3746 ;;		Nothing
  3747 ;; This function is called by:
  3748 ;;		_ADC_Init
  3749 ;; This function uses a non-reentrant model
  3750 ;;
  3751                           
  3752                           	psect	text25
  3753   002B12                     __ptext25:
  3754                           	callstack 0
  3755   002B12                     _configure_adc_result_format:
  3756                           	callstack 26
  3757   002B12                     
  3758                           ;MCAL_Layer/ADC/hal_adc.c: 283:     if(adc_obj->result_format == 0U){
  3759   002B12  5002               	movf	configure_adc_result_format@adc_obj^0,w,c
  3760   002B14  6ED9               	movwf	fsr2l,c
  3761   002B16  6ADA               	clrf	fsr2h,c
  3762   002B18  0E03               	movlw	3
  3763   002B1A  26D9               	addwf	fsr2l,f,c
  3764   002B1C  B0DF               	btfsc	indf2,0,c
  3765   002B1E  EF93  F015         	goto	u2981
  3766   002B22  EF95  F015         	goto	u2980
  3767   002B26                     u2981:
  3768   002B26  EF98  F015         	goto	l4241
  3769   002B2A                     u2980:
  3770   002B2A                     
  3771                           ;MCAL_Layer/ADC/hal_adc.c: 284:         (ADCON2bits.ADFM=0);
  3772   002B2A  9EC0               	bcf	192,7,c	;volatile
  3773                           
  3774                           ;MCAL_Layer/ADC/hal_adc.c: 285:     }
  3775   002B2C  EFA5  F015         	goto	l1290
  3776   002B30                     l4241:
  3777   002B30  5002               	movf	configure_adc_result_format@adc_obj^0,w,c
  3778   002B32  6ED9               	movwf	fsr2l,c
  3779   002B34  6ADA               	clrf	fsr2h,c
  3780   002B36  0E03               	movlw	3
  3781   002B38  26D9               	addwf	fsr2l,f,c
  3782   002B3A  A0DF               	btfss	indf2,0,c
  3783   002B3C  EFA2  F015         	goto	u2991
  3784   002B40  EFA4  F015         	goto	u2990
  3785   002B44                     u2991:
  3786   002B44  EFA5  F015         	goto	l1290
  3787   002B48                     u2990:
  3788   002B48                     
  3789                           ;MCAL_Layer/ADC/hal_adc.c: 287:          (ADCON2bits.ADFM=1);
  3790   002B48  8EC0               	bsf	192,7,c	;volatile
  3791   002B4A                     l1290:
  3792   002B4A  0012               	return		;funcret
  3793   002B4C                     __end_of_configure_adc_result_format:
  3794                           	callstack 0
  3795                           
  3796 ;; *************** function ___xxtofl *****************
  3797 ;; Defined at:
  3798 ;;		line 10 in file "C:\Program Files\Microchip\xc8\v2.45\pic\sources\c99\common\xxtofl.c"
  3799 ;; Parameters:    Size  Location     Type
  3800 ;;  sign            1    wreg     unsigned char 
  3801 ;;  val             4    1[COMRAM] long 
  3802 ;; Auto vars:     Size  Location     Type
  3803 ;;  sign            1    9[COMRAM] unsigned char 
  3804 ;;  arg             4   11[COMRAM] unsigned long 
  3805 ;;  exp             1   10[COMRAM] unsigned char 
  3806 ;; Return value:  Size  Location     Type
  3807 ;;                  4    1[COMRAM] unsigned char 
  3808 ;; Registers used:
  3809 ;;		wreg, status,2, status,0
  3810 ;; Tracked objects:
  3811 ;;		On entry : 0/0
  3812 ;;		On exit  : 0/0
  3813 ;;		Unchanged: 0/0
  3814 ;; Data sizes:     COMRAM   BANK0   BANK1   BANK2   BANK3   BANK4   BANK5   BANK6   BANK7   BANK8   BANK9  BANK10  BANK1
      +1  BANK12  BANK13  BANK14  BANK15
  3815 ;;      Params:         4       0       0       0       0       0       0       0       0       0       0       0       
      +0       0       0       0       0
  3816 ;;      Locals:         6       0       0       0       0       0       0       0       0       0       0       0       
      +0       0       0       0       0
  3817 ;;      Temps:          4       0       0       0       0       0       0       0       0       0       0       0       
      +0       0       0       0       0
  3818 ;;      Totals:        14       0       0       0       0       0       0       0       0       0       0       0       
      +0       0       0       0       0
  3819 ;;Total ram usage:       14 bytes
  3820 ;; Hardware stack levels used: 1
  3821 ;; Hardware stack levels required when called: 2
  3822 ;; This function calls:
  3823 ;;		Nothing
  3824 ;; This function is called by:
  3825 ;;		_main
  3826 ;; This function uses a non-reentrant model
  3827 ;;
  3828                           
  3829                           	psect	text26
  3830   001C3E                     __ptext26:
  3831                           	callstack 0
  3832   001C3E                     ___xxtofl:
  3833                           	callstack 28
  3834                           
  3835                           ;incstack = 0
  3836                           ;___xxtofl@sign stored from wreg
  3837   001C3E  6E0A               	movwf	___xxtofl@sign^0,c
  3838   001C40  500A               	movf	___xxtofl@sign^0,w,c
  3839   001C42  B4D8               	btfsc	status,2,c
  3840   001C44  EF26  F00E         	goto	u3691
  3841   001C48  EF28  F00E         	goto	u3690
  3842   001C4C                     u3691:
  3843   001C4C  EF4A  F00E         	goto	l1966
  3844   001C50                     u3690:
  3845   001C50  BE05               	btfsc	(___xxtofl@val+3)^0,7,c
  3846   001C52  EF2F  F00E         	goto	u3700
  3847   001C56  EF2D  F00E         	goto	u3701
  3848   001C5A                     u3701:
  3849   001C5A  EF4A  F00E         	goto	l1966
  3850   001C5E                     u3700:
  3851   001C5E  C002  F006         	movff	___xxtofl@val,??___xxtofl
  3852   001C62  C003  F007         	movff	___xxtofl@val+1,??___xxtofl+1
  3853   001C66  C004  F008         	movff	___xxtofl@val+2,??___xxtofl+2
  3854   001C6A  C005  F009         	movff	___xxtofl@val+3,??___xxtofl+3
  3855   001C6E  1E06               	comf	??___xxtofl^0,f,c
  3856   001C70  1E07               	comf	(??___xxtofl+1)^0,f,c
  3857   001C72  1E08               	comf	(??___xxtofl+2)^0,f,c
  3858   001C74  1E09               	comf	(??___xxtofl+3)^0,f,c
  3859   001C76  2A06               	incf	??___xxtofl^0,f,c
  3860   001C78  0E00               	movlw	0
  3861   001C7A  2207               	addwfc	(??___xxtofl+1)^0,f,c
  3862   001C7C  2208               	addwfc	(??___xxtofl+2)^0,f,c
  3863   001C7E  2209               	addwfc	(??___xxtofl+3)^0,f,c
  3864   001C80  C006  F00C         	movff	??___xxtofl,___xxtofl@arg
  3865   001C84  C007  F00D         	movff	??___xxtofl+1,___xxtofl@arg+1
  3866   001C88  C008  F00E         	movff	??___xxtofl+2,___xxtofl@arg+2
  3867   001C8C  C009  F00F         	movff	??___xxtofl+3,___xxtofl@arg+3
  3868   001C90  EF52  F00E         	goto	l4793
  3869   001C94                     l1966:
  3870   001C94  C002  F00C         	movff	___xxtofl@val,___xxtofl@arg
  3871   001C98  C003  F00D         	movff	___xxtofl@val+1,___xxtofl@arg+1
  3872   001C9C  C004  F00E         	movff	___xxtofl@val+2,___xxtofl@arg+2
  3873   001CA0  C005  F00F         	movff	___xxtofl@val+3,___xxtofl@arg+3
  3874   001CA4                     l4793:
  3875   001CA4  5002               	movf	___xxtofl@val^0,w,c
  3876   001CA6  1003               	iorwf	(___xxtofl@val+1)^0,w,c
  3877   001CA8  1004               	iorwf	(___xxtofl@val+2)^0,w,c
  3878   001CAA  1005               	iorwf	(___xxtofl@val+3)^0,w,c
  3879   001CAC  A4D8               	btfss	status,2,c
  3880   001CAE  EF5B  F00E         	goto	u3711
  3881   001CB2  EF5D  F00E         	goto	u3710
  3882   001CB6                     u3711:
  3883   001CB6  EF67  F00E         	goto	l4799
  3884   001CBA                     u3710:
  3885   001CBA  0E00               	movlw	0
  3886   001CBC  6E02               	movwf	?___xxtofl^0,c
  3887   001CBE  0E00               	movlw	0
  3888   001CC0  6E03               	movwf	(?___xxtofl+1)^0,c
  3889   001CC2  0E00               	movlw	0
  3890   001CC4  6E04               	movwf	(?___xxtofl+2)^0,c
  3891   001CC6  0E00               	movlw	0
  3892   001CC8  6E05               	movwf	(?___xxtofl+3)^0,c
  3893   001CCA  EFF8  F00E         	goto	l1969
  3894   001CCE                     l4799:
  3895   001CCE  0E96               	movlw	150
  3896   001CD0  6E0B               	movwf	___xxtofl@exp^0,c
  3897   001CD2  EF71  F00E         	goto	l4803
  3898   001CD6                     l4801:
  3899   001CD6  2A0B               	incf	___xxtofl@exp^0,f,c
  3900   001CD8  90D8               	bcf	status,0,c
  3901   001CDA  320F               	rrcf	(___xxtofl@arg+3)^0,f,c
  3902   001CDC  320E               	rrcf	(___xxtofl@arg+2)^0,f,c
  3903   001CDE  320D               	rrcf	(___xxtofl@arg+1)^0,f,c
  3904   001CE0  320C               	rrcf	___xxtofl@arg^0,f,c
  3905   001CE2                     l4803:
  3906   001CE2  0E00               	movlw	0
  3907   001CE4  140C               	andwf	___xxtofl@arg^0,w,c
  3908   001CE6  6E06               	movwf	??___xxtofl^0,c
  3909   001CE8  0E00               	movlw	0
  3910   001CEA  140D               	andwf	(___xxtofl@arg+1)^0,w,c
  3911   001CEC  6E07               	movwf	(??___xxtofl+1)^0,c
  3912   001CEE  0E00               	movlw	0
  3913   001CF0  140E               	andwf	(___xxtofl@arg+2)^0,w,c
  3914   001CF2  6E08               	movwf	(??___xxtofl+2)^0,c
  3915   001CF4  0EFE               	movlw	254
  3916   001CF6  140F               	andwf	(___xxtofl@arg+3)^0,w,c
  3917   001CF8  6E09               	movwf	(??___xxtofl+3)^0,c
  3918   001CFA  5006               	movf	??___xxtofl^0,w,c
  3919   001CFC  1007               	iorwf	(??___xxtofl+1)^0,w,c
  3920   001CFE  1008               	iorwf	(??___xxtofl+2)^0,w,c
  3921   001D00  1009               	iorwf	(??___xxtofl+3)^0,w,c
  3922   001D02  A4D8               	btfss	status,2,c
  3923   001D04  EF86  F00E         	goto	u3721
  3924   001D08  EF88  F00E         	goto	u3720
  3925   001D0C                     u3721:
  3926   001D0C  EF6B  F00E         	goto	l4801
  3927   001D10                     u3720:
  3928   001D10  EF96  F00E         	goto	l1973
  3929   001D14                     l4805:
  3930   001D14  2A0B               	incf	___xxtofl@exp^0,f,c
  3931   001D16  0E01               	movlw	1
  3932   001D18  260C               	addwf	___xxtofl@arg^0,f,c
  3933   001D1A  0E00               	movlw	0
  3934   001D1C  220D               	addwfc	(___xxtofl@arg+1)^0,f,c
  3935   001D1E  220E               	addwfc	(___xxtofl@arg+2)^0,f,c
  3936   001D20  220F               	addwfc	(___xxtofl@arg+3)^0,f,c
  3937   001D22  90D8               	bcf	status,0,c
  3938   001D24  320F               	rrcf	(___xxtofl@arg+3)^0,f,c
  3939   001D26  320E               	rrcf	(___xxtofl@arg+2)^0,f,c
  3940   001D28  320D               	rrcf	(___xxtofl@arg+1)^0,f,c
  3941   001D2A  320C               	rrcf	___xxtofl@arg^0,f,c
  3942   001D2C                     l1973:
  3943   001D2C  0E00               	movlw	0
  3944   001D2E  140C               	andwf	___xxtofl@arg^0,w,c
  3945   001D30  6E06               	movwf	??___xxtofl^0,c
  3946   001D32  0E00               	movlw	0
  3947   001D34  140D               	andwf	(___xxtofl@arg+1)^0,w,c
  3948   001D36  6E07               	movwf	(??___xxtofl+1)^0,c
  3949   001D38  0E00               	movlw	0
  3950   001D3A  140E               	andwf	(___xxtofl@arg+2)^0,w,c
  3951   001D3C  6E08               	movwf	(??___xxtofl+2)^0,c
  3952   001D3E  0EFF               	movlw	255
  3953   001D40  140F               	andwf	(___xxtofl@arg+3)^0,w,c
  3954   001D42  6E09               	movwf	(??___xxtofl+3)^0,c
  3955   001D44  5006               	movf	??___xxtofl^0,w,c
  3956   001D46  1007               	iorwf	(??___xxtofl+1)^0,w,c
  3957   001D48  1008               	iorwf	(??___xxtofl+2)^0,w,c
  3958   001D4A  1009               	iorwf	(??___xxtofl+3)^0,w,c
  3959   001D4C  A4D8               	btfss	status,2,c
  3960   001D4E  EFAB  F00E         	goto	u3731
  3961   001D52  EFAD  F00E         	goto	u3730
  3962   001D56                     u3731:
  3963   001D56  EF8A  F00E         	goto	l4805
  3964   001D5A                     u3730:
  3965   001D5A  EFB5  F00E         	goto	l4813
  3966   001D5E                     l4811:
  3967   001D5E  060B               	decf	___xxtofl@exp^0,f,c
  3968   001D60  90D8               	bcf	status,0,c
  3969   001D62  360C               	rlcf	___xxtofl@arg^0,f,c
  3970   001D64  360D               	rlcf	(___xxtofl@arg+1)^0,f,c
  3971   001D66  360E               	rlcf	(___xxtofl@arg+2)^0,f,c
  3972   001D68  360F               	rlcf	(___xxtofl@arg+3)^0,f,c
  3973   001D6A                     l4813:
  3974   001D6A  BE0E               	btfsc	(___xxtofl@arg+2)^0,7,c
  3975   001D6C  EFBA  F00E         	goto	u3741
  3976   001D70  EFBC  F00E         	goto	u3740
  3977   001D74                     u3741:
  3978   001D74  EFC4  F00E         	goto	l1980
  3979   001D78                     u3740:
  3980   001D78  0E02               	movlw	2
  3981   001D7A  600B               	cpfslt	___xxtofl@exp^0,c
  3982   001D7C  EFC2  F00E         	goto	u3751
  3983   001D80  EFC4  F00E         	goto	u3750
  3984   001D84                     u3751:
  3985   001D84  EFAF  F00E         	goto	l4811
  3986   001D88                     u3750:
  3987   001D88                     l1980:
  3988   001D88  B00B               	btfsc	___xxtofl@exp^0,0,c
  3989   001D8A  EFC9  F00E         	goto	u3761
  3990   001D8E  EFCB  F00E         	goto	u3760
  3991   001D92                     u3761:
  3992   001D92  EFCC  F00E         	goto	l4819
  3993   001D96                     u3760:
  3994   001D96  9E0E               	bcf	(___xxtofl@arg+2)^0,7,c
  3995   001D98                     l4819:
  3996   001D98  90D8               	bcf	status,0,c
  3997   001D9A  320B               	rrcf	___xxtofl@exp^0,f,c
  3998   001D9C  C00B  F006         	movff	___xxtofl@exp,??___xxtofl
  3999   001DA0  6A07               	clrf	(??___xxtofl+1)^0,c
  4000   001DA2  6A08               	clrf	(??___xxtofl+2)^0,c
  4001   001DA4  6A09               	clrf	(??___xxtofl+3)^0,c
  4002   001DA6  C006  F009         	movff	??___xxtofl,??___xxtofl+3
  4003   001DAA  6A08               	clrf	(??___xxtofl+2)^0,c
  4004   001DAC  6A07               	clrf	(??___xxtofl+1)^0,c
  4005   001DAE  6A06               	clrf	??___xxtofl^0,c
  4006   001DB0  5006               	movf	??___xxtofl^0,w,c
  4007   001DB2  120C               	iorwf	___xxtofl@arg^0,f,c
  4008   001DB4  5007               	movf	(??___xxtofl+1)^0,w,c
  4009   001DB6  120D               	iorwf	(___xxtofl@arg+1)^0,f,c
  4010   001DB8  5008               	movf	(??___xxtofl+2)^0,w,c
  4011   001DBA  120E               	iorwf	(___xxtofl@arg+2)^0,f,c
  4012   001DBC  5009               	movf	(??___xxtofl+3)^0,w,c
  4013   001DBE  120F               	iorwf	(___xxtofl@arg+3)^0,f,c
  4014   001DC0  500A               	movf	___xxtofl@sign^0,w,c
  4015   001DC2  B4D8               	btfsc	status,2,c
  4016   001DC4  EFE6  F00E         	goto	u3771
  4017   001DC8  EFE8  F00E         	goto	u3770
  4018   001DCC                     u3771:
  4019   001DCC  EFF0  F00E         	goto	l4829
  4020   001DD0                     u3770:
  4021   001DD0  BE05               	btfsc	(___xxtofl@val+3)^0,7,c
  4022   001DD2  EFEF  F00E         	goto	u3780
  4023   001DD6  EFED  F00E         	goto	u3781
  4024   001DDA                     u3781:
  4025   001DDA  EFF0  F00E         	goto	l4829
  4026   001DDE                     u3780:
  4027   001DDE  8E0F               	bsf	(___xxtofl@arg+3)^0,7,c
  4028   001DE0                     l4829:
  4029   001DE0  C00C  F002         	movff	___xxtofl@arg,?___xxtofl
  4030   001DE4  C00D  F003         	movff	___xxtofl@arg+1,?___xxtofl+1
  4031   001DE8  C00E  F004         	movff	___xxtofl@arg+2,?___xxtofl+2
  4032   001DEC  C00F  F005         	movff	___xxtofl@arg+3,?___xxtofl+3
  4033   001DF0                     l1969:
  4034   001DF0  0012               	return		;funcret
  4035   001DF2                     __end_of___xxtofl:
  4036                           	callstack 0
  4037                           
  4038 ;; *************** function ___fltol *****************
  4039 ;; Defined at:
  4040 ;;		line 43 in file "C:\Program Files\Microchip\xc8\v2.45\pic\sources\c99\common\fltol.c"
  4041 ;; Parameters:    Size  Location     Type
  4042 ;;  f1              4   65[COMRAM] unsigned char 
  4043 ;; Auto vars:     Size  Location     Type
  4044 ;;  exp1            1   74[COMRAM] unsigned char 
  4045 ;;  sign1           1   73[COMRAM] unsigned char 
  4046 ;; Return value:  Size  Location     Type
  4047 ;;                  4   65[COMRAM] long 
  4048 ;; Registers used:
  4049 ;;		wreg, status,2, status,0
  4050 ;; Tracked objects:
  4051 ;;		On entry : 0/0
  4052 ;;		On exit  : 0/0
  4053 ;;		Unchanged: 0/0
  4054 ;; Data sizes:     COMRAM   BANK0   BANK1   BANK2   BANK3   BANK4   BANK5   BANK6   BANK7   BANK8   BANK9  BANK10  BANK1
      +1  BANK12  BANK13  BANK14  BANK15
  4055 ;;      Params:         4       0       0       0       0       0       0       0       0       0       0       0       
      +0       0       0       0       0
  4056 ;;      Locals:         2       0       0       0       0       0       0       0       0       0       0       0       
      +0       0       0       0       0
  4057 ;;      Temps:          4       0       0       0       0       0       0       0       0       0       0       0       
      +0       0       0       0       0
  4058 ;;      Totals:        10       0       0       0       0       0       0       0       0       0       0       0       
      +0       0       0       0       0
  4059 ;;Total ram usage:       10 bytes
  4060 ;; Hardware stack levels used: 1
  4061 ;; Hardware stack levels required when called: 2
  4062 ;; This function calls:
  4063 ;;		Nothing
  4064 ;; This function is called by:
  4065 ;;		_main
  4066 ;; This function uses a non-reentrant model
  4067 ;;
  4068                           
  4069                           	psect	text27
  4070   002028                     __ptext27:
  4071                           	callstack 0
  4072   002028                     ___fltol:
  4073                           	callstack 28
  4074   002028  3444               	rlcf	(___fltol@f1+2)^0,w,c
  4075   00202A  3445               	rlcf	(___fltol@f1+3)^0,w,c
  4076   00202C  6E4B               	movwf	___fltol@exp1^0,c
  4077   00202E  504B               	movf	___fltol@exp1^0,w,c
  4078   002030  A4D8               	btfss	status,2,c
  4079   002032  EF1D  F010         	goto	u3621
  4080   002036  EF1F  F010         	goto	u3620
  4081   00203A                     u3621:
  4082   00203A  EF29  F010         	goto	l4749
  4083   00203E                     u3620:
  4084   00203E                     l4745:
  4085   00203E  0E00               	movlw	0
  4086   002040  6E42               	movwf	?___fltol^0,c
  4087   002042  0E00               	movlw	0
  4088   002044  6E43               	movwf	(?___fltol+1)^0,c
  4089   002046  0E00               	movlw	0
  4090   002048  6E44               	movwf	(?___fltol+2)^0,c
  4091   00204A  0E00               	movlw	0
  4092   00204C  6E45               	movwf	(?___fltol+3)^0,c
  4093   00204E  EF96  F010         	goto	l1608
  4094   002052                     l4749:
  4095   002052  C042  F046         	movff	___fltol@f1,??___fltol
  4096   002056  C043  F047         	movff	___fltol@f1+1,??___fltol+1
  4097   00205A  C044  F048         	movff	___fltol@f1+2,??___fltol+2
  4098   00205E  C045  F049         	movff	___fltol@f1+3,??___fltol+3
  4099   002062  0E20               	movlw	32
  4100   002064  EF39  F010         	goto	u3630
  4101   002068                     u3635:
  4102   002068  90D8               	bcf	status,0,c
  4103   00206A  3249               	rrcf	(??___fltol+3)^0,f,c
  4104   00206C  3248               	rrcf	(??___fltol+2)^0,f,c
  4105   00206E  3247               	rrcf	(??___fltol+1)^0,f,c
  4106   002070  3246               	rrcf	??___fltol^0,f,c
  4107   002072                     u3630:
  4108   002072  2EE8               	decfsz	wreg,f,c
  4109   002074  EF34  F010         	goto	u3635
  4110   002078  5046               	movf	??___fltol^0,w,c
  4111   00207A  6E4A               	movwf	___fltol@sign1^0,c
  4112   00207C  8E44               	bsf	(___fltol@f1+2)^0,7,c
  4113   00207E  0EFF               	movlw	255
  4114   002080  1642               	andwf	___fltol@f1^0,f,c
  4115   002082  0EFF               	movlw	255
  4116   002084  1643               	andwf	(___fltol@f1+1)^0,f,c
  4117   002086  0EFF               	movlw	255
  4118   002088  1644               	andwf	(___fltol@f1+2)^0,f,c
  4119   00208A  0E00               	movlw	0
  4120   00208C  1645               	andwf	(___fltol@f1+3)^0,f,c
  4121   00208E  0E96               	movlw	150
  4122   002090  5E4B               	subwf	___fltol@exp1^0,f,c
  4123   002092  BE4B               	btfsc	___fltol@exp1^0,7,c
  4124   002094  EF50  F010         	goto	u3640
  4125   002098  EF4E  F010         	goto	u3641
  4126   00209C                     u3641:
  4127   00209C  EF66  F010         	goto	l4769
  4128   0020A0                     u3640:
  4129   0020A0  504B               	movf	___fltol@exp1^0,w,c
  4130   0020A2  0A80               	xorlw	128
  4131   0020A4  0F97               	addlw	151
  4132   0020A6  B0D8               	btfsc	status,0,c
  4133   0020A8  EF58  F010         	goto	u3651
  4134   0020AC  EF5A  F010         	goto	u3650
  4135   0020B0                     u3651:
  4136   0020B0  EF5C  F010         	goto	l4765
  4137   0020B4                     u3650:
  4138   0020B4  EF1F  F010         	goto	l4745
  4139   0020B8                     l4765:
  4140   0020B8  90D8               	bcf	status,0,c
  4141   0020BA  3245               	rrcf	(___fltol@f1+3)^0,f,c
  4142   0020BC  3244               	rrcf	(___fltol@f1+2)^0,f,c
  4143   0020BE  3243               	rrcf	(___fltol@f1+1)^0,f,c
  4144   0020C0  3242               	rrcf	___fltol@f1^0,f,c
  4145   0020C2  3E4B               	incfsz	___fltol@exp1^0,f,c
  4146   0020C4  EF5C  F010         	goto	l4765
  4147   0020C8  EF7E  F010         	goto	l4779
  4148   0020CC                     l4769:
  4149   0020CC  0E1F               	movlw	31
  4150   0020CE  644B               	cpfsgt	___fltol@exp1^0,c
  4151   0020D0  EF6C  F010         	goto	u3661
  4152   0020D4  EF6E  F010         	goto	u3660
  4153   0020D8                     u3661:
  4154   0020D8  EF76  F010         	goto	l4777
  4155   0020DC                     u3660:
  4156   0020DC  EF1F  F010         	goto	l4745
  4157   0020E0                     l4775:
  4158   0020E0  90D8               	bcf	status,0,c
  4159   0020E2  3642               	rlcf	___fltol@f1^0,f,c
  4160   0020E4  3643               	rlcf	(___fltol@f1+1)^0,f,c
  4161   0020E6  3644               	rlcf	(___fltol@f1+2)^0,f,c
  4162   0020E8  3645               	rlcf	(___fltol@f1+3)^0,f,c
  4163   0020EA  064B               	decf	___fltol@exp1^0,f,c
  4164   0020EC                     l4777:
  4165   0020EC  504B               	movf	___fltol@exp1^0,w,c
  4166   0020EE  A4D8               	btfss	status,2,c
  4167   0020F0  EF7C  F010         	goto	u3671
  4168   0020F4  EF7E  F010         	goto	u3670
  4169   0020F8                     u3671:
  4170   0020F8  EF70  F010         	goto	l4775
  4171   0020FC                     u3670:
  4172   0020FC                     l4779:
  4173   0020FC  504A               	movf	___fltol@sign1^0,w,c
  4174   0020FE  B4D8               	btfsc	status,2,c
  4175   002100  EF84  F010         	goto	u3681
  4176   002104  EF86  F010         	goto	u3680
  4177   002108                     u3681:
  4178   002108  EF8E  F010         	goto	l4783
  4179   00210C                     u3680:
  4180   00210C  1E45               	comf	(___fltol@f1+3)^0,f,c
  4181   00210E  1E44               	comf	(___fltol@f1+2)^0,f,c
  4182   002110  1E43               	comf	(___fltol@f1+1)^0,f,c
  4183   002112  6C42               	negf	___fltol@f1^0,c
  4184   002114  0E00               	movlw	0
  4185   002116  2243               	addwfc	(___fltol@f1+1)^0,f,c
  4186   002118  2244               	addwfc	(___fltol@f1+2)^0,f,c
  4187   00211A  2245               	addwfc	(___fltol@f1+3)^0,f,c
  4188   00211C                     l4783:
  4189   00211C  C042  F042         	movff	___fltol@f1,?___fltol
  4190   002120  C043  F043         	movff	___fltol@f1+1,?___fltol+1
  4191   002124  C044  F044         	movff	___fltol@f1+2,?___fltol+2
  4192   002128  C045  F045         	movff	___fltol@f1+3,?___fltol+3
  4193   00212C                     l1608:
  4194   00212C  0012               	return		;funcret
  4195   00212E                     __end_of___fltol:
  4196                           	callstack 0
  4197                           
  4198 ;; *************** function ___flmul *****************
  4199 ;; Defined at:
  4200 ;;		line 8 in file "C:\Program Files\Microchip\xc8\v2.45\pic\sources\c99\common\sprcmul.c"
  4201 ;; Parameters:    Size  Location     Type
  4202 ;;  b               4   15[COMRAM] long 
  4203 ;;  a               4   19[COMRAM] long 
  4204 ;; Auto vars:     Size  Location     Type
  4205 ;;  prod            4   34[COMRAM] struct .
  4206 ;;  grs             4   28[COMRAM] unsigned long 
  4207 ;;  temp            2   38[COMRAM] struct .
  4208 ;;  bexp            1   33[COMRAM] unsigned char 
  4209 ;;  aexp            1   32[COMRAM] unsigned char 
  4210 ;;  sign            1   27[COMRAM] unsigned char 
  4211 ;; Return value:  Size  Location     Type
  4212 ;;                  4   15[COMRAM] unsigned char 
  4213 ;; Registers used:
  4214 ;;		wreg, status,2, status,0, prodl, prodh
  4215 ;; Tracked objects:
  4216 ;;		On entry : 0/0
  4217 ;;		On exit  : 0/0
  4218 ;;		Unchanged: 0/0
  4219 ;; Data sizes:     COMRAM   BANK0   BANK1   BANK2   BANK3   BANK4   BANK5   BANK6   BANK7   BANK8   BANK9  BANK10  BANK1
      +1  BANK12  BANK13  BANK14  BANK15
  4220 ;;      Params:         8       0       0       0       0       0       0       0       0       0       0       0       
      +0       0       0       0       0
  4221 ;;      Locals:        13       0       0       0       0       0       0       0       0       0       0       0       
      +0       0       0       0       0
  4222 ;;      Temps:          4       0       0       0       0       0       0       0       0       0       0       0       
      +0       0       0       0       0
  4223 ;;      Totals:        25       0       0       0       0       0       0       0       0       0       0       0       
      +0       0       0       0       0
  4224 ;;Total ram usage:       25 bytes
  4225 ;; Hardware stack levels used: 1
  4226 ;; Hardware stack levels required when called: 2
  4227 ;; This function calls:
  4228 ;;		Nothing
  4229 ;; This function is called by:
  4230 ;;		_main
  4231 ;; This function uses a non-reentrant model
  4232 ;;
  4233                           
  4234                           	psect	text28
  4235   001034                     __ptext28:
  4236                           	callstack 0
  4237   001034                     ___flmul:
  4238                           	callstack 28
  4239   001034  5013               	movf	(___flmul@b+3)^0,w,c
  4240   001036  0B80               	andlw	128
  4241   001038  6E1C               	movwf	___flmul@sign^0,c
  4242   00103A  5013               	movf	(___flmul@b+3)^0,w,c
  4243   00103C  2413               	addwf	(___flmul@b+3)^0,w,c
  4244   00103E  6E22               	movwf	___flmul@bexp^0,c
  4245   001040  AE12               	btfss	(___flmul@b+2)^0,7,c
  4246   001042  EF25  F008         	goto	u3431
  4247   001046  EF27  F008         	goto	u3430
  4248   00104A                     u3431:
  4249   00104A  EF28  F008         	goto	l4619
  4250   00104E                     u3430:
  4251   00104E  8022               	bsf	___flmul@bexp^0,0,c
  4252   001050                     l4619:
  4253   001050  5022               	movf	___flmul@bexp^0,w,c
  4254   001052  B4D8               	btfsc	status,2,c
  4255   001054  EF2E  F008         	goto	u3441
  4256   001058  EF30  F008         	goto	u3440
  4257   00105C                     u3441:
  4258   00105C  EF43  F008         	goto	l4627
  4259   001060                     u3440:
  4260   001060  2822               	incf	___flmul@bexp^0,w,c
  4261   001062  A4D8               	btfss	status,2,c
  4262   001064  EF36  F008         	goto	u3451
  4263   001068  EF38  F008         	goto	u3450
  4264   00106C                     u3451:
  4265   00106C  EF40  F008         	goto	l4625
  4266   001070                     u3450:
  4267   001070  0E00               	movlw	0
  4268   001072  6E10               	movwf	___flmul@b^0,c
  4269   001074  0E00               	movlw	0
  4270   001076  6E11               	movwf	(___flmul@b+1)^0,c
  4271   001078  0E00               	movlw	0
  4272   00107A  6E12               	movwf	(___flmul@b+2)^0,c
  4273   00107C  0E00               	movlw	0
  4274   00107E  6E13               	movwf	(___flmul@b+3)^0,c
  4275   001080                     l4625:
  4276   001080  8E12               	bsf	(___flmul@b+2)^0,7,c
  4277   001082  EF4B  F008         	goto	l4629
  4278   001086                     l4627:
  4279   001086  0E00               	movlw	0
  4280   001088  6E10               	movwf	___flmul@b^0,c
  4281   00108A  0E00               	movlw	0
  4282   00108C  6E11               	movwf	(___flmul@b+1)^0,c
  4283   00108E  0E00               	movlw	0
  4284   001090  6E12               	movwf	(___flmul@b+2)^0,c
  4285   001092  0E00               	movlw	0
  4286   001094  6E13               	movwf	(___flmul@b+3)^0,c
  4287   001096                     l4629:
  4288   001096  5017               	movf	(___flmul@a+3)^0,w,c
  4289   001098  0B80               	andlw	128
  4290   00109A  1A1C               	xorwf	___flmul@sign^0,f,c
  4291   00109C  5017               	movf	(___flmul@a+3)^0,w,c
  4292   00109E  2417               	addwf	(___flmul@a+3)^0,w,c
  4293   0010A0  6E21               	movwf	___flmul@aexp^0,c
  4294   0010A2  AE16               	btfss	(___flmul@a+2)^0,7,c
  4295   0010A4  EF56  F008         	goto	u3461
  4296   0010A8  EF58  F008         	goto	u3460
  4297   0010AC                     u3461:
  4298   0010AC  EF59  F008         	goto	l4637
  4299   0010B0                     u3460:
  4300   0010B0  8021               	bsf	___flmul@aexp^0,0,c
  4301   0010B2                     l4637:
  4302   0010B2  5021               	movf	___flmul@aexp^0,w,c
  4303   0010B4  B4D8               	btfsc	status,2,c
  4304   0010B6  EF5F  F008         	goto	u3471
  4305   0010BA  EF61  F008         	goto	u3470
  4306   0010BE                     u3471:
  4307   0010BE  EF74  F008         	goto	l4645
  4308   0010C2                     u3470:
  4309   0010C2  2821               	incf	___flmul@aexp^0,w,c
  4310   0010C4  A4D8               	btfss	status,2,c
  4311   0010C6  EF67  F008         	goto	u3481
  4312   0010CA  EF69  F008         	goto	u3480
  4313   0010CE                     u3481:
  4314   0010CE  EF71  F008         	goto	l4643
  4315   0010D2                     u3480:
  4316   0010D2  0E00               	movlw	0
  4317   0010D4  6E14               	movwf	___flmul@a^0,c
  4318   0010D6  0E00               	movlw	0
  4319   0010D8  6E15               	movwf	(___flmul@a+1)^0,c
  4320   0010DA  0E00               	movlw	0
  4321   0010DC  6E16               	movwf	(___flmul@a+2)^0,c
  4322   0010DE  0E00               	movlw	0
  4323   0010E0  6E17               	movwf	(___flmul@a+3)^0,c
  4324   0010E2                     l4643:
  4325   0010E2  8E16               	bsf	(___flmul@a+2)^0,7,c
  4326   0010E4  EF7C  F008         	goto	l1925
  4327   0010E8                     l4645:
  4328   0010E8  0E00               	movlw	0
  4329   0010EA  6E14               	movwf	___flmul@a^0,c
  4330   0010EC  0E00               	movlw	0
  4331   0010EE  6E15               	movwf	(___flmul@a+1)^0,c
  4332   0010F0  0E00               	movlw	0
  4333   0010F2  6E16               	movwf	(___flmul@a+2)^0,c
  4334   0010F4  0E00               	movlw	0
  4335   0010F6  6E17               	movwf	(___flmul@a+3)^0,c
  4336   0010F8                     l1925:
  4337   0010F8  5021               	movf	___flmul@aexp^0,w,c
  4338   0010FA  B4D8               	btfsc	status,2,c
  4339   0010FC  EF82  F008         	goto	u3491
  4340   001100  EF84  F008         	goto	u3490
  4341   001104                     u3491:
  4342   001104  EF8C  F008         	goto	l4649
  4343   001108                     u3490:
  4344   001108  5022               	movf	___flmul@bexp^0,w,c
  4345   00110A  A4D8               	btfss	status,2,c
  4346   00110C  EF8A  F008         	goto	u3501
  4347   001110  EF8C  F008         	goto	u3500
  4348   001114                     u3501:
  4349   001114  EF96  F008         	goto	l4653
  4350   001118                     u3500:
  4351   001118                     l4649:
  4352   001118  0E00               	movlw	0
  4353   00111A  6E10               	movwf	?___flmul^0,c
  4354   00111C  0E00               	movlw	0
  4355   00111E  6E11               	movwf	(?___flmul+1)^0,c
  4356   001120  0E00               	movlw	0
  4357   001122  6E12               	movwf	(?___flmul+2)^0,c
  4358   001124  0E00               	movlw	0
  4359   001126  6E13               	movwf	(?___flmul+3)^0,c
  4360   001128  EF2E  F00A         	goto	l1929
  4361   00112C                     l4653:
  4362   00112C  5016               	movf	(___flmul@a+2)^0,w,c
  4363   00112E  0210               	mulwf	___flmul@b^0,c
  4364   001130  CFF3 F027          	movff	prodl,___flmul@temp
  4365   001134  CFF4 F028          	movff	prodh,___flmul@temp+1
  4366   001138  5027               	movf	___flmul@temp^0,w,c
  4367   00113A  6E1D               	movwf	___flmul@grs^0,c
  4368   00113C  6A1E               	clrf	(___flmul@grs+1)^0,c
  4369   00113E  6A1F               	clrf	(___flmul@grs+2)^0,c
  4370   001140  6A20               	clrf	(___flmul@grs+3)^0,c
  4371   001142  5028               	movf	(___flmul@temp+1)^0,w,c
  4372   001144  6E23               	movwf	___flmul@prod^0,c
  4373   001146  6A24               	clrf	(___flmul@prod+1)^0,c
  4374   001148  6A25               	clrf	(___flmul@prod+2)^0,c
  4375   00114A  6A26               	clrf	(___flmul@prod+3)^0,c
  4376   00114C  5015               	movf	(___flmul@a+1)^0,w,c
  4377   00114E  0211               	mulwf	(___flmul@b+1)^0,c
  4378   001150  CFF3 F027          	movff	prodl,___flmul@temp
  4379   001154  CFF4 F028          	movff	prodh,___flmul@temp+1
  4380   001158  5027               	movf	___flmul@temp^0,w,c
  4381   00115A  261D               	addwf	___flmul@grs^0,f,c
  4382   00115C  0E00               	movlw	0
  4383   00115E  221E               	addwfc	(___flmul@grs+1)^0,f,c
  4384   001160  221F               	addwfc	(___flmul@grs+2)^0,f,c
  4385   001162  2220               	addwfc	(___flmul@grs+3)^0,f,c
  4386   001164  5028               	movf	(___flmul@temp+1)^0,w,c
  4387   001166  2623               	addwf	___flmul@prod^0,f,c
  4388   001168  0E00               	movlw	0
  4389   00116A  2224               	addwfc	(___flmul@prod+1)^0,f,c
  4390   00116C  2225               	addwfc	(___flmul@prod+2)^0,f,c
  4391   00116E  2226               	addwfc	(___flmul@prod+3)^0,f,c
  4392   001170  5014               	movf	___flmul@a^0,w,c
  4393   001172  0212               	mulwf	(___flmul@b+2)^0,c
  4394   001174  CFF3 F027          	movff	prodl,___flmul@temp
  4395   001178  CFF4 F028          	movff	prodh,___flmul@temp+1
  4396   00117C  5027               	movf	___flmul@temp^0,w,c
  4397   00117E  261D               	addwf	___flmul@grs^0,f,c
  4398   001180  0E00               	movlw	0
  4399   001182  221E               	addwfc	(___flmul@grs+1)^0,f,c
  4400   001184  221F               	addwfc	(___flmul@grs+2)^0,f,c
  4401   001186  2220               	addwfc	(___flmul@grs+3)^0,f,c
  4402   001188  5028               	movf	(___flmul@temp+1)^0,w,c
  4403   00118A  2623               	addwf	___flmul@prod^0,f,c
  4404   00118C  0E00               	movlw	0
  4405   00118E  2224               	addwfc	(___flmul@prod+1)^0,f,c
  4406   001190  2225               	addwfc	(___flmul@prod+2)^0,f,c
  4407   001192  2226               	addwfc	(___flmul@prod+3)^0,f,c
  4408   001194  C01F  F020         	movff	___flmul@grs+2,___flmul@grs+3
  4409   001198  C01E  F01F         	movff	___flmul@grs+1,___flmul@grs+2
  4410   00119C  C01D  F01E         	movff	___flmul@grs,___flmul@grs+1
  4411   0011A0  6A1D               	clrf	___flmul@grs^0,c
  4412   0011A2  5014               	movf	___flmul@a^0,w,c
  4413   0011A4  0211               	mulwf	(___flmul@b+1)^0,c
  4414   0011A6  CFF3 F027          	movff	prodl,___flmul@temp
  4415   0011AA  CFF4 F028          	movff	prodh,___flmul@temp+1
  4416   0011AE  5027               	movf	___flmul@temp^0,w,c
  4417   0011B0  261D               	addwf	___flmul@grs^0,f,c
  4418   0011B2  5028               	movf	(___flmul@temp+1)^0,w,c
  4419   0011B4  221E               	addwfc	(___flmul@grs+1)^0,f,c
  4420   0011B6  0E00               	movlw	0
  4421   0011B8  221F               	addwfc	(___flmul@grs+2)^0,f,c
  4422   0011BA  0E00               	movlw	0
  4423   0011BC  2220               	addwfc	(___flmul@grs+3)^0,f,c
  4424   0011BE  5015               	movf	(___flmul@a+1)^0,w,c
  4425   0011C0  0210               	mulwf	___flmul@b^0,c
  4426   0011C2  CFF3 F027          	movff	prodl,___flmul@temp
  4427   0011C6  CFF4 F028          	movff	prodh,___flmul@temp+1
  4428   0011CA  5027               	movf	___flmul@temp^0,w,c
  4429   0011CC  261D               	addwf	___flmul@grs^0,f,c
  4430   0011CE  5028               	movf	(___flmul@temp+1)^0,w,c
  4431   0011D0  221E               	addwfc	(___flmul@grs+1)^0,f,c
  4432   0011D2  0E00               	movlw	0
  4433   0011D4  221F               	addwfc	(___flmul@grs+2)^0,f,c
  4434   0011D6  0E00               	movlw	0
  4435   0011D8  2220               	addwfc	(___flmul@grs+3)^0,f,c
  4436   0011DA  C01F  F020         	movff	___flmul@grs+2,___flmul@grs+3
  4437   0011DE  C01E  F01F         	movff	___flmul@grs+1,___flmul@grs+2
  4438   0011E2  C01D  F01E         	movff	___flmul@grs,___flmul@grs+1
  4439   0011E6  6A1D               	clrf	___flmul@grs^0,c
  4440   0011E8  5014               	movf	___flmul@a^0,w,c
  4441   0011EA  0210               	mulwf	___flmul@b^0,c
  4442   0011EC  CFF3 F027          	movff	prodl,___flmul@temp
  4443   0011F0  CFF4 F028          	movff	prodh,___flmul@temp+1
  4444   0011F4  5027               	movf	___flmul@temp^0,w,c
  4445   0011F6  261D               	addwf	___flmul@grs^0,f,c
  4446   0011F8  5028               	movf	(___flmul@temp+1)^0,w,c
  4447   0011FA  221E               	addwfc	(___flmul@grs+1)^0,f,c
  4448   0011FC  0E00               	movlw	0
  4449   0011FE  221F               	addwfc	(___flmul@grs+2)^0,f,c
  4450   001200  0E00               	movlw	0
  4451   001202  2220               	addwfc	(___flmul@grs+3)^0,f,c
  4452   001204  5016               	movf	(___flmul@a+2)^0,w,c
  4453   001206  0211               	mulwf	(___flmul@b+1)^0,c
  4454   001208  CFF3 F027          	movff	prodl,___flmul@temp
  4455   00120C  CFF4 F028          	movff	prodh,___flmul@temp+1
  4456   001210  5027               	movf	___flmul@temp^0,w,c
  4457   001212  2623               	addwf	___flmul@prod^0,f,c
  4458   001214  5028               	movf	(___flmul@temp+1)^0,w,c
  4459   001216  2224               	addwfc	(___flmul@prod+1)^0,f,c
  4460   001218  0E00               	movlw	0
  4461   00121A  2225               	addwfc	(___flmul@prod+2)^0,f,c
  4462   00121C  0E00               	movlw	0
  4463   00121E  2226               	addwfc	(___flmul@prod+3)^0,f,c
  4464   001220  5015               	movf	(___flmul@a+1)^0,w,c
  4465   001222  0212               	mulwf	(___flmul@b+2)^0,c
  4466   001224  CFF3 F027          	movff	prodl,___flmul@temp
  4467   001228  CFF4 F028          	movff	prodh,___flmul@temp+1
  4468   00122C  5027               	movf	___flmul@temp^0,w,c
  4469   00122E  2623               	addwf	___flmul@prod^0,f,c
  4470   001230  5028               	movf	(___flmul@temp+1)^0,w,c
  4471   001232  2224               	addwfc	(___flmul@prod+1)^0,f,c
  4472   001234  0E00               	movlw	0
  4473   001236  2225               	addwfc	(___flmul@prod+2)^0,f,c
  4474   001238  0E00               	movlw	0
  4475   00123A  2226               	addwfc	(___flmul@prod+3)^0,f,c
  4476   00123C  5016               	movf	(___flmul@a+2)^0,w,c
  4477   00123E  0212               	mulwf	(___flmul@b+2)^0,c
  4478   001240  CFF3 F027          	movff	prodl,___flmul@temp
  4479   001244  CFF4 F028          	movff	prodh,___flmul@temp+1
  4480   001248  5027               	movf	___flmul@temp^0,w,c
  4481   00124A  6E18               	movwf	??___flmul^0,c
  4482   00124C  5028               	movf	(___flmul@temp+1)^0,w,c
  4483   00124E  6E19               	movwf	(??___flmul+1)^0,c
  4484   001250  6A1A               	clrf	(??___flmul+2)^0,c
  4485   001252  6A1B               	clrf	(??___flmul+3)^0,c
  4486   001254  C01A  F01B         	movff	??___flmul+2,??___flmul+3
  4487   001258  C019  F01A         	movff	??___flmul+1,??___flmul+2
  4488   00125C  C018  F019         	movff	??___flmul,??___flmul+1
  4489   001260  6A18               	clrf	??___flmul^0,c
  4490   001262  5018               	movf	??___flmul^0,w,c
  4491   001264  2623               	addwf	___flmul@prod^0,f,c
  4492   001266  5019               	movf	(??___flmul+1)^0,w,c
  4493   001268  2224               	addwfc	(___flmul@prod+1)^0,f,c
  4494   00126A  501A               	movf	(??___flmul+2)^0,w,c
  4495   00126C  2225               	addwfc	(___flmul@prod+2)^0,f,c
  4496   00126E  501B               	movf	(??___flmul+3)^0,w,c
  4497   001270  2226               	addwfc	(___flmul@prod+3)^0,f,c
  4498   001272  C01D  F018         	movff	___flmul@grs,??___flmul
  4499   001276  C01E  F019         	movff	___flmul@grs+1,??___flmul+1
  4500   00127A  C01F  F01A         	movff	___flmul@grs+2,??___flmul+2
  4501   00127E  C020  F01B         	movff	___flmul@grs+3,??___flmul+3
  4502   001282  0E19               	movlw	25
  4503   001284  EF49  F009         	goto	u3510
  4504   001288                     u3515:
  4505   001288  90D8               	bcf	status,0,c
  4506   00128A  321B               	rrcf	(??___flmul+3)^0,f,c
  4507   00128C  321A               	rrcf	(??___flmul+2)^0,f,c
  4508   00128E  3219               	rrcf	(??___flmul+1)^0,f,c
  4509   001290  3218               	rrcf	??___flmul^0,f,c
  4510   001292                     u3510:
  4511   001292  2EE8               	decfsz	wreg,f,c
  4512   001294  EF44  F009         	goto	u3515
  4513   001298  5018               	movf	??___flmul^0,w,c
  4514   00129A  2623               	addwf	___flmul@prod^0,f,c
  4515   00129C  5019               	movf	(??___flmul+1)^0,w,c
  4516   00129E  2224               	addwfc	(___flmul@prod+1)^0,f,c
  4517   0012A0  501A               	movf	(??___flmul+2)^0,w,c
  4518   0012A2  2225               	addwfc	(___flmul@prod+2)^0,f,c
  4519   0012A4  501B               	movf	(??___flmul+3)^0,w,c
  4520   0012A6  2226               	addwfc	(___flmul@prod+3)^0,f,c
  4521   0012A8  C01F  F020         	movff	___flmul@grs+2,___flmul@grs+3
  4522   0012AC  C01E  F01F         	movff	___flmul@grs+1,___flmul@grs+2
  4523   0012B0  C01D  F01E         	movff	___flmul@grs,___flmul@grs+1
  4524   0012B4  6A1D               	clrf	___flmul@grs^0,c
  4525   0012B6  5021               	movf	___flmul@aexp^0,w,c
  4526   0012B8  C022  F018         	movff	___flmul@bexp,??___flmul
  4527   0012BC  6A19               	clrf	(??___flmul+1)^0,c
  4528   0012BE  2618               	addwf	??___flmul^0,f,c
  4529   0012C0  0E00               	movlw	0
  4530   0012C2  2219               	addwfc	(??___flmul+1)^0,f,c
  4531   0012C4  0E82               	movlw	130
  4532   0012C6  2418               	addwf	??___flmul^0,w,c
  4533   0012C8  6E27               	movwf	___flmul@temp^0,c
  4534   0012CA  0EFF               	movlw	255
  4535   0012CC  2019               	addwfc	(??___flmul+1)^0,w,c
  4536   0012CE  6E28               	movwf	(___flmul@temp+1)^0,c
  4537   0012D0  EF7F  F009         	goto	l4701
  4538   0012D4                     l4695:
  4539   0012D4  90D8               	bcf	status,0,c
  4540   0012D6  3623               	rlcf	___flmul@prod^0,f,c
  4541   0012D8  3624               	rlcf	(___flmul@prod+1)^0,f,c
  4542   0012DA  3625               	rlcf	(___flmul@prod+2)^0,f,c
  4543   0012DC  3626               	rlcf	(___flmul@prod+3)^0,f,c
  4544   0012DE  AE20               	btfss	(___flmul@grs+3)^0,7,c
  4545   0012E0  EF74  F009         	goto	u3521
  4546   0012E4  EF76  F009         	goto	u3520
  4547   0012E8                     u3521:
  4548   0012E8  EF77  F009         	goto	l1932
  4549   0012EC                     u3520:
  4550   0012EC  8023               	bsf	___flmul@prod^0,0,c
  4551   0012EE                     l1932:
  4552   0012EE  90D8               	bcf	status,0,c
  4553   0012F0  361D               	rlcf	___flmul@grs^0,f,c
  4554   0012F2  361E               	rlcf	(___flmul@grs+1)^0,f,c
  4555   0012F4  361F               	rlcf	(___flmul@grs+2)^0,f,c
  4556   0012F6  3620               	rlcf	(___flmul@grs+3)^0,f,c
  4557   0012F8  0627               	decf	___flmul@temp^0,f,c
  4558   0012FA  A0D8               	btfss	status,0,c
  4559   0012FC  0628               	decf	(___flmul@temp+1)^0,f,c
  4560   0012FE                     l4701:
  4561   0012FE  AE25               	btfss	(___flmul@prod+2)^0,7,c
  4562   001300  EF84  F009         	goto	u3531
  4563   001304  EF86  F009         	goto	u3530
  4564   001308                     u3531:
  4565   001308  EF6A  F009         	goto	l4695
  4566   00130C                     u3530:
  4567   00130C  0E00               	movlw	0
  4568   00130E  6E21               	movwf	___flmul@aexp^0,c
  4569   001310  AE20               	btfss	(___flmul@grs+3)^0,7,c
  4570   001312  EF8D  F009         	goto	u3541
  4571   001316  EF8F  F009         	goto	u3540
  4572   00131A                     u3541:
  4573   00131A  EFB3  F009         	goto	l1934
  4574   00131E                     u3540:
  4575   00131E  0EFF               	movlw	255
  4576   001320  141D               	andwf	___flmul@grs^0,w,c
  4577   001322  6E18               	movwf	??___flmul^0,c
  4578   001324  0EFF               	movlw	255
  4579   001326  141E               	andwf	(___flmul@grs+1)^0,w,c
  4580   001328  6E19               	movwf	(??___flmul+1)^0,c
  4581   00132A  0EFF               	movlw	255
  4582   00132C  141F               	andwf	(___flmul@grs+2)^0,w,c
  4583   00132E  6E1A               	movwf	(??___flmul+2)^0,c
  4584   001330  0E7F               	movlw	127
  4585   001332  1420               	andwf	(___flmul@grs+3)^0,w,c
  4586   001334  6E1B               	movwf	(??___flmul+3)^0,c
  4587   001336  5018               	movf	??___flmul^0,w,c
  4588   001338  1019               	iorwf	(??___flmul+1)^0,w,c
  4589   00133A  101A               	iorwf	(??___flmul+2)^0,w,c
  4590   00133C  101B               	iorwf	(??___flmul+3)^0,w,c
  4591   00133E  B4D8               	btfsc	status,2,c
  4592   001340  EFA4  F009         	goto	u3551
  4593   001344  EFA6  F009         	goto	u3550
  4594   001348                     u3551:
  4595   001348  EFAA  F009         	goto	l1935
  4596   00134C                     u3550:
  4597   00134C                     l4709:
  4598   00134C  0E01               	movlw	1
  4599   00134E  6E21               	movwf	___flmul@aexp^0,c
  4600   001350  EFB3  F009         	goto	l1934
  4601   001354                     l1935:
  4602   001354  A023               	btfss	___flmul@prod^0,0,c
  4603   001356  EFAF  F009         	goto	u3561
  4604   00135A  EFB1  F009         	goto	u3560
  4605   00135E                     u3561:
  4606   00135E  EFB3  F009         	goto	l1934
  4607   001362                     u3560:
  4608   001362  EFA6  F009         	goto	l4709
  4609   001366                     l1934:
  4610   001366  5021               	movf	___flmul@aexp^0,w,c
  4611   001368  B4D8               	btfsc	status,2,c
  4612   00136A  EFB9  F009         	goto	u3571
  4613   00136E  EFBB  F009         	goto	u3570
  4614   001372                     u3571:
  4615   001372  EFDF  F009         	goto	l4721
  4616   001376                     u3570:
  4617   001376  0E01               	movlw	1
  4618   001378  2623               	addwf	___flmul@prod^0,f,c
  4619   00137A  0E00               	movlw	0
  4620   00137C  2224               	addwfc	(___flmul@prod+1)^0,f,c
  4621   00137E  2225               	addwfc	(___flmul@prod+2)^0,f,c
  4622   001380  2226               	addwfc	(___flmul@prod+3)^0,f,c
  4623   001382  A026               	btfss	(___flmul@prod+3)^0,0,c
  4624   001384  EFC6  F009         	goto	u3581
  4625   001388  EFC8  F009         	goto	u3580
  4626   00138C                     u3581:
  4627   00138C  EFDF  F009         	goto	l4721
  4628   001390                     u3580:
  4629   001390  C023  F018         	movff	___flmul@prod,??___flmul
  4630   001394  C024  F019         	movff	___flmul@prod+1,??___flmul+1
  4631   001398  C025  F01A         	movff	___flmul@prod+2,??___flmul+2
  4632   00139C  C026  F01B         	movff	___flmul@prod+3,??___flmul+3
  4633   0013A0  341B               	rlcf	(??___flmul+3)^0,w,c
  4634   0013A2  321B               	rrcf	(??___flmul+3)^0,f,c
  4635   0013A4  321A               	rrcf	(??___flmul+2)^0,f,c
  4636   0013A6  3219               	rrcf	(??___flmul+1)^0,f,c
  4637   0013A8  3218               	rrcf	??___flmul^0,f,c
  4638   0013AA  C018  F023         	movff	??___flmul,___flmul@prod
  4639   0013AE  C019  F024         	movff	??___flmul+1,___flmul@prod+1
  4640   0013B2  C01A  F025         	movff	??___flmul+2,___flmul@prod+2
  4641   0013B6  C01B  F026         	movff	??___flmul+3,___flmul@prod+3
  4642   0013BA  4A27               	infsnz	___flmul@temp^0,f,c
  4643   0013BC  2A28               	incf	(___flmul@temp+1)^0,f,c
  4644   0013BE                     l4721:
  4645   0013BE  BE28               	btfsc	(___flmul@temp+1)^0,7,c
  4646   0013C0  EFEA  F009         	goto	u3591
  4647   0013C4  5028               	movf	(___flmul@temp+1)^0,w,c
  4648   0013C6  E108               	bnz	u3590
  4649   0013C8  2827               	incf	___flmul@temp^0,w,c
  4650   0013CA  A0D8               	btfss	status,0,c
  4651   0013CC  EFEA  F009         	goto	u3591
  4652   0013D0  EFEC  F009         	goto	u3590
  4653   0013D4                     u3591:
  4654   0013D4  EFF6  F009         	goto	l4725
  4655   0013D8                     u3590:
  4656   0013D8  0E00               	movlw	0
  4657   0013DA  6E23               	movwf	___flmul@prod^0,c
  4658   0013DC  0E00               	movlw	0
  4659   0013DE  6E24               	movwf	(___flmul@prod+1)^0,c
  4660   0013E0  0E80               	movlw	128
  4661   0013E2  6E25               	movwf	(___flmul@prod+2)^0,c
  4662   0013E4  0E7F               	movlw	127
  4663   0013E6  6E26               	movwf	(___flmul@prod+3)^0,c
  4664   0013E8  EF24  F00A         	goto	l4737
  4665   0013EC                     l4725:
  4666   0013EC  BE28               	btfsc	(___flmul@temp+1)^0,7,c
  4667   0013EE  EF03  F00A         	goto	u3600
  4668   0013F2  5028               	movf	(___flmul@temp+1)^0,w,c
  4669   0013F4  E106               	bnz	u3601
  4670   0013F6  0427               	decf	___flmul@temp^0,w,c
  4671   0013F8  B0D8               	btfsc	status,0,c
  4672   0013FA  EF01  F00A         	goto	u3601
  4673   0013FE  EF03  F00A         	goto	u3600
  4674   001402                     u3601:
  4675   001402  EF0F  F00A         	goto	l1942
  4676   001406                     u3600:
  4677   001406  0E00               	movlw	0
  4678   001408  6E23               	movwf	___flmul@prod^0,c
  4679   00140A  0E00               	movlw	0
  4680   00140C  6E24               	movwf	(___flmul@prod+1)^0,c
  4681   00140E  0E00               	movlw	0
  4682   001410  6E25               	movwf	(___flmul@prod+2)^0,c
  4683   001412  0E00               	movlw	0
  4684   001414  6E26               	movwf	(___flmul@prod+3)^0,c
  4685   001416  0E00               	movlw	0
  4686   001418  6E1C               	movwf	___flmul@sign^0,c
  4687   00141A  EF24  F00A         	goto	l4737
  4688   00141E                     l1942:
  4689   00141E  C027  F022         	movff	___flmul@temp,___flmul@bexp
  4690   001422  0EFF               	movlw	255
  4691   001424  1623               	andwf	___flmul@prod^0,f,c
  4692   001426  0EFF               	movlw	255
  4693   001428  1624               	andwf	(___flmul@prod+1)^0,f,c
  4694   00142A  0E7F               	movlw	127
  4695   00142C  1625               	andwf	(___flmul@prod+2)^0,f,c
  4696   00142E  0E00               	movlw	0
  4697   001430  1626               	andwf	(___flmul@prod+3)^0,f,c
  4698   001432  A022               	btfss	___flmul@bexp^0,0,c
  4699   001434  EF1E  F00A         	goto	u3611
  4700   001438  EF20  F00A         	goto	u3610
  4701   00143C                     u3611:
  4702   00143C  EF21  F00A         	goto	l4735
  4703   001440                     u3610:
  4704   001440  8E25               	bsf	(___flmul@prod+2)^0,7,c
  4705   001442                     l4735:
  4706   001442  90D8               	bcf	status,0,c
  4707   001444  3022               	rrcf	___flmul@bexp^0,w,c
  4708   001446  6E26               	movwf	(___flmul@prod+3)^0,c
  4709   001448                     l4737:
  4710   001448  501C               	movf	___flmul@sign^0,w,c
  4711   00144A  1226               	iorwf	(___flmul@prod+3)^0,f,c
  4712   00144C  C023  F010         	movff	___flmul@prod,?___flmul
  4713   001450  C024  F011         	movff	___flmul@prod+1,?___flmul+1
  4714   001454  C025  F012         	movff	___flmul@prod+2,?___flmul+2
  4715   001458  C026  F013         	movff	___flmul@prod+3,?___flmul+3
  4716   00145C                     l1929:
  4717   00145C  0012               	return		;funcret
  4718   00145E                     __end_of___flmul:
  4719                           	callstack 0
  4720                           
  4721 ;; *************** function ___fldiv *****************
  4722 ;; Defined at:
  4723 ;;		line 11 in file "C:\Program Files\Microchip\xc8\v2.45\pic\sources\c99\common\sprcdiv.c"
  4724 ;; Parameters:    Size  Location     Type
  4725 ;;  b               4   40[COMRAM] unsigned char 
  4726 ;;  a               4   44[COMRAM] unsigned char 
  4727 ;; Auto vars:     Size  Location     Type
  4728 ;;  grs             4   59[COMRAM] unsigned long 
  4729 ;;  rem             4   52[COMRAM] unsigned long 
  4730 ;;  new_exp         2   57[COMRAM] short 
  4731 ;;  aexp            1   64[COMRAM] unsigned char 
  4732 ;;  bexp            1   63[COMRAM] unsigned char 
  4733 ;;  sign            1   56[COMRAM] unsigned char 
  4734 ;; Return value:  Size  Location     Type
  4735 ;;                  4   40[COMRAM] unsigned char 
  4736 ;; Registers used:
  4737 ;;		wreg, status,2, status,0
  4738 ;; Tracked objects:
  4739 ;;		On entry : 0/0
  4740 ;;		On exit  : 0/0
  4741 ;;		Unchanged: 0/0
  4742 ;; Data sizes:     COMRAM   BANK0   BANK1   BANK2   BANK3   BANK4   BANK5   BANK6   BANK7   BANK8   BANK9  BANK10  BANK1
      +1  BANK12  BANK13  BANK14  BANK15
  4743 ;;      Params:         8       0       0       0       0       0       0       0       0       0       0       0       
      +0       0       0       0       0
  4744 ;;      Locals:        13       0       0       0       0       0       0       0       0       0       0       0       
      +0       0       0       0       0
  4745 ;;      Temps:          4       0       0       0       0       0       0       0       0       0       0       0       
      +0       0       0       0       0
  4746 ;;      Totals:        25       0       0       0       0       0       0       0       0       0       0       0       
      +0       0       0       0       0
  4747 ;;Total ram usage:       25 bytes
  4748 ;; Hardware stack levels used: 1
  4749 ;; Hardware stack levels required when called: 2
  4750 ;; This function calls:
  4751 ;;		Nothing
  4752 ;; This function is called by:
  4753 ;;		_main
  4754 ;; This function uses a non-reentrant model
  4755 ;;
  4756                           
  4757                           	psect	text29
  4758   00145E                     __ptext29:
  4759                           	callstack 0
  4760   00145E                     ___fldiv:
  4761                           	callstack 28
  4762   00145E  502C               	movf	(___fldiv@b+3)^0,w,c
  4763   001460  0B80               	andlw	128
  4764   001462  6E39               	movwf	___fldiv@sign^0,c
  4765   001464  502C               	movf	(___fldiv@b+3)^0,w,c
  4766   001466  242C               	addwf	(___fldiv@b+3)^0,w,c
  4767   001468  6E40               	movwf	___fldiv@bexp^0,c
  4768   00146A  AE2B               	btfss	(___fldiv@b+2)^0,7,c
  4769   00146C  EF3A  F00A         	goto	u3201
  4770   001470  EF3C  F00A         	goto	u3200
  4771   001474                     u3201:
  4772   001474  EF3D  F00A         	goto	l4481
  4773   001478                     u3200:
  4774   001478  8040               	bsf	___fldiv@bexp^0,0,c
  4775   00147A                     l4481:
  4776   00147A  5040               	movf	___fldiv@bexp^0,w,c
  4777   00147C  B4D8               	btfsc	status,2,c
  4778   00147E  EF43  F00A         	goto	u3211
  4779   001482  EF45  F00A         	goto	u3210
  4780   001486                     u3211:
  4781   001486  EF5A  F00A         	goto	l4491
  4782   00148A                     u3210:
  4783   00148A  2840               	incf	___fldiv@bexp^0,w,c
  4784   00148C  A4D8               	btfss	status,2,c
  4785   00148E  EF4B  F00A         	goto	u3221
  4786   001492  EF4D  F00A         	goto	u3220
  4787   001496                     u3221:
  4788   001496  EF55  F00A         	goto	l4487
  4789   00149A                     u3220:
  4790   00149A  0E00               	movlw	0
  4791   00149C  6E29               	movwf	___fldiv@b^0,c
  4792   00149E  0E00               	movlw	0
  4793   0014A0  6E2A               	movwf	(___fldiv@b+1)^0,c
  4794   0014A2  0E00               	movlw	0
  4795   0014A4  6E2B               	movwf	(___fldiv@b+2)^0,c
  4796   0014A6  0E00               	movlw	0
  4797   0014A8  6E2C               	movwf	(___fldiv@b+3)^0,c
  4798   0014AA                     l4487:
  4799   0014AA  8E2B               	bsf	(___fldiv@b+2)^0,7,c
  4800   0014AC  0E00               	movlw	0
  4801   0014AE  6E2C               	movwf	(___fldiv@b+3)^0,c
  4802   0014B0  EF62  F00A         	goto	l4493
  4803   0014B4                     l4491:
  4804   0014B4  0E00               	movlw	0
  4805   0014B6  6E29               	movwf	___fldiv@b^0,c
  4806   0014B8  0E00               	movlw	0
  4807   0014BA  6E2A               	movwf	(___fldiv@b+1)^0,c
  4808   0014BC  0E00               	movlw	0
  4809   0014BE  6E2B               	movwf	(___fldiv@b+2)^0,c
  4810   0014C0  0E00               	movlw	0
  4811   0014C2  6E2C               	movwf	(___fldiv@b+3)^0,c
  4812   0014C4                     l4493:
  4813   0014C4  5030               	movf	(___fldiv@a+3)^0,w,c
  4814   0014C6  0B80               	andlw	128
  4815   0014C8  1A39               	xorwf	___fldiv@sign^0,f,c
  4816   0014CA  5030               	movf	(___fldiv@a+3)^0,w,c
  4817   0014CC  2430               	addwf	(___fldiv@a+3)^0,w,c
  4818   0014CE  6E41               	movwf	___fldiv@aexp^0,c
  4819   0014D0  AE2F               	btfss	(___fldiv@a+2)^0,7,c
  4820   0014D2  EF6D  F00A         	goto	u3231
  4821   0014D6  EF6F  F00A         	goto	u3230
  4822   0014DA                     u3231:
  4823   0014DA  EF70  F00A         	goto	l4501
  4824   0014DE                     u3230:
  4825   0014DE  8041               	bsf	___fldiv@aexp^0,0,c
  4826   0014E0                     l4501:
  4827   0014E0  5041               	movf	___fldiv@aexp^0,w,c
  4828   0014E2  B4D8               	btfsc	status,2,c
  4829   0014E4  EF76  F00A         	goto	u3241
  4830   0014E8  EF78  F00A         	goto	u3240
  4831   0014EC                     u3241:
  4832   0014EC  EF8D  F00A         	goto	l4511
  4833   0014F0                     u3240:
  4834   0014F0  2841               	incf	___fldiv@aexp^0,w,c
  4835   0014F2  A4D8               	btfss	status,2,c
  4836   0014F4  EF7E  F00A         	goto	u3251
  4837   0014F8  EF80  F00A         	goto	u3250
  4838   0014FC                     u3251:
  4839   0014FC  EF88  F00A         	goto	l4507
  4840   001500                     u3250:
  4841   001500  0E00               	movlw	0
  4842   001502  6E2D               	movwf	___fldiv@a^0,c
  4843   001504  0E00               	movlw	0
  4844   001506  6E2E               	movwf	(___fldiv@a+1)^0,c
  4845   001508  0E00               	movlw	0
  4846   00150A  6E2F               	movwf	(___fldiv@a+2)^0,c
  4847   00150C  0E00               	movlw	0
  4848   00150E  6E30               	movwf	(___fldiv@a+3)^0,c
  4849   001510                     l4507:
  4850   001510  8E2F               	bsf	(___fldiv@a+2)^0,7,c
  4851   001512  0E00               	movlw	0
  4852   001514  6E30               	movwf	(___fldiv@a+3)^0,c
  4853   001516  EF95  F00A         	goto	l4513
  4854   00151A                     l4511:
  4855   00151A  0E00               	movlw	0
  4856   00151C  6E2D               	movwf	___fldiv@a^0,c
  4857   00151E  0E00               	movlw	0
  4858   001520  6E2E               	movwf	(___fldiv@a+1)^0,c
  4859   001522  0E00               	movlw	0
  4860   001524  6E2F               	movwf	(___fldiv@a+2)^0,c
  4861   001526  0E00               	movlw	0
  4862   001528  6E30               	movwf	(___fldiv@a+3)^0,c
  4863   00152A                     l4513:
  4864   00152A  502D               	movf	___fldiv@a^0,w,c
  4865   00152C  102E               	iorwf	(___fldiv@a+1)^0,w,c
  4866   00152E  102F               	iorwf	(___fldiv@a+2)^0,w,c
  4867   001530  1030               	iorwf	(___fldiv@a+3)^0,w,c
  4868   001532  A4D8               	btfss	status,2,c
  4869   001534  EF9E  F00A         	goto	u3261
  4870   001538  EFA0  F00A         	goto	u3260
  4871   00153C                     u3261:
  4872   00153C  EFB8  F00A         	goto	l4525
  4873   001540                     u3260:
  4874   001540  0E00               	movlw	0
  4875   001542  6E29               	movwf	___fldiv@b^0,c
  4876   001544  0E00               	movlw	0
  4877   001546  6E2A               	movwf	(___fldiv@b+1)^0,c
  4878   001548  0E00               	movlw	0
  4879   00154A  6E2B               	movwf	(___fldiv@b+2)^0,c
  4880   00154C  0E00               	movlw	0
  4881   00154E  6E2C               	movwf	(___fldiv@b+3)^0,c
  4882   001550  0E80               	movlw	128
  4883   001552  122B               	iorwf	(___fldiv@b+2)^0,f,c
  4884   001554  0E7F               	movlw	127
  4885   001556  122C               	iorwf	(___fldiv@b+3)^0,f,c
  4886   001558                     l4519:
  4887   001558  5039               	movf	___fldiv@sign^0,w,c
  4888   00155A  122C               	iorwf	(___fldiv@b+3)^0,f,c
  4889   00155C  C029  F029         	movff	___fldiv@b,?___fldiv
  4890   001560  C02A  F02A         	movff	___fldiv@b+1,?___fldiv+1
  4891   001564  C02B  F02B         	movff	___fldiv@b+2,?___fldiv+2
  4892   001568  C02C  F02C         	movff	___fldiv@b+3,?___fldiv+3
  4893   00156C  EFFB  F00B         	goto	l1893
  4894   001570                     l4525:
  4895   001570  5040               	movf	___fldiv@bexp^0,w,c
  4896   001572  A4D8               	btfss	status,2,c
  4897   001574  EFBE  F00A         	goto	u3271
  4898   001578  EFC0  F00A         	goto	u3270
  4899   00157C                     u3271:
  4900   00157C  EFCA  F00A         	goto	l4533
  4901   001580                     u3270:
  4902   001580  0E00               	movlw	0
  4903   001582  6E29               	movwf	?___fldiv^0,c
  4904   001584  0E00               	movlw	0
  4905   001586  6E2A               	movwf	(?___fldiv+1)^0,c
  4906   001588  0E00               	movlw	0
  4907   00158A  6E2B               	movwf	(?___fldiv+2)^0,c
  4908   00158C  0E00               	movlw	0
  4909   00158E  6E2C               	movwf	(?___fldiv+3)^0,c
  4910   001590  EFFB  F00B         	goto	l1893
  4911   001594                     l4533:
  4912   001594  5041               	movf	___fldiv@aexp^0,w,c
  4913   001596  C040  F031         	movff	___fldiv@bexp,??___fldiv
  4914   00159A  6A32               	clrf	(??___fldiv+1)^0,c
  4915   00159C  5E31               	subwf	??___fldiv^0,f,c
  4916   00159E  0E00               	movlw	0
  4917   0015A0  5A32               	subwfb	(??___fldiv+1)^0,f,c
  4918   0015A2  0E7F               	movlw	127
  4919   0015A4  2431               	addwf	??___fldiv^0,w,c
  4920   0015A6  6E3A               	movwf	___fldiv@new_exp^0,c
  4921   0015A8  0E00               	movlw	0
  4922   0015AA  2032               	addwfc	(??___fldiv+1)^0,w,c
  4923   0015AC  6E3B               	movwf	(___fldiv@new_exp+1)^0,c
  4924   0015AE  C029  F035         	movff	___fldiv@b,___fldiv@rem
  4925   0015B2  C02A  F036         	movff	___fldiv@b+1,___fldiv@rem+1
  4926   0015B6  C02B  F037         	movff	___fldiv@b+2,___fldiv@rem+2
  4927   0015BA  C02C  F038         	movff	___fldiv@b+3,___fldiv@rem+3
  4928   0015BE  0E00               	movlw	0
  4929   0015C0  6E29               	movwf	___fldiv@b^0,c
  4930   0015C2  0E00               	movlw	0
  4931   0015C4  6E2A               	movwf	(___fldiv@b+1)^0,c
  4932   0015C6  0E00               	movlw	0
  4933   0015C8  6E2B               	movwf	(___fldiv@b+2)^0,c
  4934   0015CA  0E00               	movlw	0
  4935   0015CC  6E2C               	movwf	(___fldiv@b+3)^0,c
  4936   0015CE  0E00               	movlw	0
  4937   0015D0  6E3C               	movwf	___fldiv@grs^0,c
  4938   0015D2  0E00               	movlw	0
  4939   0015D4  6E3D               	movwf	(___fldiv@grs+1)^0,c
  4940   0015D6  0E00               	movlw	0
  4941   0015D8  6E3E               	movwf	(___fldiv@grs+2)^0,c
  4942   0015DA  0E00               	movlw	0
  4943   0015DC  6E3F               	movwf	(___fldiv@grs+3)^0,c
  4944   0015DE  0E00               	movlw	0
  4945   0015E0  6E41               	movwf	___fldiv@aexp^0,c
  4946   0015E2  EF2B  F00B         	goto	l1895
  4947   0015E6                     l4543:
  4948   0015E6  5041               	movf	___fldiv@aexp^0,w,c
  4949   0015E8  B4D8               	btfsc	status,2,c
  4950   0015EA  EFF9  F00A         	goto	u3281
  4951   0015EE  EFFB  F00A         	goto	u3280
  4952   0015F2                     u3281:
  4953   0015F2  EF12  F00B         	goto	l4551
  4954   0015F6                     u3280:
  4955   0015F6  90D8               	bcf	status,0,c
  4956   0015F8  3635               	rlcf	___fldiv@rem^0,f,c
  4957   0015FA  3636               	rlcf	(___fldiv@rem+1)^0,f,c
  4958   0015FC  3637               	rlcf	(___fldiv@rem+2)^0,f,c
  4959   0015FE  3638               	rlcf	(___fldiv@rem+3)^0,f,c
  4960   001600  90D8               	bcf	status,0,c
  4961   001602  3629               	rlcf	___fldiv@b^0,f,c
  4962   001604  362A               	rlcf	(___fldiv@b+1)^0,f,c
  4963   001606  362B               	rlcf	(___fldiv@b+2)^0,f,c
  4964   001608  362C               	rlcf	(___fldiv@b+3)^0,f,c
  4965   00160A  AE3F               	btfss	(___fldiv@grs+3)^0,7,c
  4966   00160C  EF0A  F00B         	goto	u3291
  4967   001610  EF0C  F00B         	goto	u3290
  4968   001614                     u3291:
  4969   001614  EF0D  F00B         	goto	l1898
  4970   001618                     u3290:
  4971   001618  8029               	bsf	___fldiv@b^0,0,c
  4972   00161A                     l1898:
  4973   00161A  90D8               	bcf	status,0,c
  4974   00161C  363C               	rlcf	___fldiv@grs^0,f,c
  4975   00161E  363D               	rlcf	(___fldiv@grs+1)^0,f,c
  4976   001620  363E               	rlcf	(___fldiv@grs+2)^0,f,c
  4977   001622  363F               	rlcf	(___fldiv@grs+3)^0,f,c
  4978   001624                     l4551:
  4979   001624  502D               	movf	___fldiv@a^0,w,c
  4980   001626  5C35               	subwf	___fldiv@rem^0,w,c
  4981   001628  502E               	movf	(___fldiv@a+1)^0,w,c
  4982   00162A  5836               	subwfb	(___fldiv@rem+1)^0,w,c
  4983   00162C  502F               	movf	(___fldiv@a+2)^0,w,c
  4984   00162E  5837               	subwfb	(___fldiv@rem+2)^0,w,c
  4985   001630  5030               	movf	(___fldiv@a+3)^0,w,c
  4986   001632  5838               	subwfb	(___fldiv@rem+3)^0,w,c
  4987   001634  A0D8               	btfss	status,0,c
  4988   001636  EF1F  F00B         	goto	u3301
  4989   00163A  EF21  F00B         	goto	u3300
  4990   00163E                     u3301:
  4991   00163E  EF2A  F00B         	goto	l4557
  4992   001642                     u3300:
  4993   001642  8C3F               	bsf	(___fldiv@grs+3)^0,6,c
  4994   001644  502D               	movf	___fldiv@a^0,w,c
  4995   001646  5E35               	subwf	___fldiv@rem^0,f,c
  4996   001648  502E               	movf	(___fldiv@a+1)^0,w,c
  4997   00164A  5A36               	subwfb	(___fldiv@rem+1)^0,f,c
  4998   00164C  502F               	movf	(___fldiv@a+2)^0,w,c
  4999   00164E  5A37               	subwfb	(___fldiv@rem+2)^0,f,c
  5000   001650  5030               	movf	(___fldiv@a+3)^0,w,c
  5001   001652  5A38               	subwfb	(___fldiv@rem+3)^0,f,c
  5002   001654                     l4557:
  5003   001654  2A41               	incf	___fldiv@aexp^0,f,c
  5004   001656                     l1895:
  5005   001656  0E19               	movlw	25
  5006   001658  6441               	cpfsgt	___fldiv@aexp^0,c
  5007   00165A  EF31  F00B         	goto	u3311
  5008   00165E  EF33  F00B         	goto	u3310
  5009   001662                     u3311:
  5010   001662  EFF3  F00A         	goto	l4543
  5011   001666                     u3310:
  5012   001666  5035               	movf	___fldiv@rem^0,w,c
  5013   001668  1036               	iorwf	(___fldiv@rem+1)^0,w,c
  5014   00166A  1037               	iorwf	(___fldiv@rem+2)^0,w,c
  5015   00166C  1038               	iorwf	(___fldiv@rem+3)^0,w,c
  5016   00166E  B4D8               	btfsc	status,2,c
  5017   001670  EF3C  F00B         	goto	u3321
  5018   001674  EF3E  F00B         	goto	u3320
  5019   001678                     u3321:
  5020   001678  EF56  F00B         	goto	l4569
  5021   00167C                     u3320:
  5022   00167C  803C               	bsf	___fldiv@grs^0,0,c
  5023   00167E  EF56  F00B         	goto	l4569
  5024   001682                     l4563:
  5025   001682  90D8               	bcf	status,0,c
  5026   001684  3629               	rlcf	___fldiv@b^0,f,c
  5027   001686  362A               	rlcf	(___fldiv@b+1)^0,f,c
  5028   001688  362B               	rlcf	(___fldiv@b+2)^0,f,c
  5029   00168A  362C               	rlcf	(___fldiv@b+3)^0,f,c
  5030   00168C  AE3F               	btfss	(___fldiv@grs+3)^0,7,c
  5031   00168E  EF4B  F00B         	goto	u3331
  5032   001692  EF4D  F00B         	goto	u3330
  5033   001696                     u3331:
  5034   001696  EF4E  F00B         	goto	l1904
  5035   00169A                     u3330:
  5036   00169A  8029               	bsf	___fldiv@b^0,0,c
  5037   00169C                     l1904:
  5038   00169C  90D8               	bcf	status,0,c
  5039   00169E  363C               	rlcf	___fldiv@grs^0,f,c
  5040   0016A0  363D               	rlcf	(___fldiv@grs+1)^0,f,c
  5041   0016A2  363E               	rlcf	(___fldiv@grs+2)^0,f,c
  5042   0016A4  363F               	rlcf	(___fldiv@grs+3)^0,f,c
  5043   0016A6  063A               	decf	___fldiv@new_exp^0,f,c
  5044   0016A8  A0D8               	btfss	status,0,c
  5045   0016AA  063B               	decf	(___fldiv@new_exp+1)^0,f,c
  5046   0016AC                     l4569:
  5047   0016AC  AE2B               	btfss	(___fldiv@b+2)^0,7,c
  5048   0016AE  EF5B  F00B         	goto	u3341
  5049   0016B2  EF5D  F00B         	goto	u3340
  5050   0016B6                     u3341:
  5051   0016B6  EF41  F00B         	goto	l4563
  5052   0016BA                     u3340:
  5053   0016BA  0E00               	movlw	0
  5054   0016BC  6E41               	movwf	___fldiv@aexp^0,c
  5055   0016BE  AE3F               	btfss	(___fldiv@grs+3)^0,7,c
  5056   0016C0  EF64  F00B         	goto	u3351
  5057   0016C4  EF66  F00B         	goto	u3350
  5058   0016C8                     u3351:
  5059   0016C8  EF8A  F00B         	goto	l1906
  5060   0016CC                     u3350:
  5061   0016CC  0EFF               	movlw	255
  5062   0016CE  143C               	andwf	___fldiv@grs^0,w,c
  5063   0016D0  6E31               	movwf	??___fldiv^0,c
  5064   0016D2  0EFF               	movlw	255
  5065   0016D4  143D               	andwf	(___fldiv@grs+1)^0,w,c
  5066   0016D6  6E32               	movwf	(??___fldiv+1)^0,c
  5067   0016D8  0EFF               	movlw	255
  5068   0016DA  143E               	andwf	(___fldiv@grs+2)^0,w,c
  5069   0016DC  6E33               	movwf	(??___fldiv+2)^0,c
  5070   0016DE  0E7F               	movlw	127
  5071   0016E0  143F               	andwf	(___fldiv@grs+3)^0,w,c
  5072   0016E2  6E34               	movwf	(??___fldiv+3)^0,c
  5073   0016E4  5031               	movf	??___fldiv^0,w,c
  5074   0016E6  1032               	iorwf	(??___fldiv+1)^0,w,c
  5075   0016E8  1033               	iorwf	(??___fldiv+2)^0,w,c
  5076   0016EA  1034               	iorwf	(??___fldiv+3)^0,w,c
  5077   0016EC  B4D8               	btfsc	status,2,c
  5078   0016EE  EF7B  F00B         	goto	u3361
  5079   0016F2  EF7D  F00B         	goto	u3360
  5080   0016F6                     u3361:
  5081   0016F6  EF81  F00B         	goto	l1907
  5082   0016FA                     u3360:
  5083   0016FA                     l4577:
  5084   0016FA  0E01               	movlw	1
  5085   0016FC  6E41               	movwf	___fldiv@aexp^0,c
  5086   0016FE  EF8A  F00B         	goto	l1906
  5087   001702                     l1907:
  5088   001702  A029               	btfss	___fldiv@b^0,0,c
  5089   001704  EF86  F00B         	goto	u3371
  5090   001708  EF88  F00B         	goto	u3370
  5091   00170C                     u3371:
  5092   00170C  EF8A  F00B         	goto	l1906
  5093   001710                     u3370:
  5094   001710  EF7D  F00B         	goto	l4577
  5095   001714                     l1906:
  5096   001714  5041               	movf	___fldiv@aexp^0,w,c
  5097   001716  B4D8               	btfsc	status,2,c
  5098   001718  EF90  F00B         	goto	u3381
  5099   00171C  EF92  F00B         	goto	u3380
  5100   001720                     u3381:
  5101   001720  EFB6  F00B         	goto	l4589
  5102   001724                     u3380:
  5103   001724  0E01               	movlw	1
  5104   001726  2629               	addwf	___fldiv@b^0,f,c
  5105   001728  0E00               	movlw	0
  5106   00172A  222A               	addwfc	(___fldiv@b+1)^0,f,c
  5107   00172C  222B               	addwfc	(___fldiv@b+2)^0,f,c
  5108   00172E  222C               	addwfc	(___fldiv@b+3)^0,f,c
  5109   001730  A02C               	btfss	(___fldiv@b+3)^0,0,c
  5110   001732  EF9D  F00B         	goto	u3391
  5111   001736  EF9F  F00B         	goto	u3390
  5112   00173A                     u3391:
  5113   00173A  EFB6  F00B         	goto	l4589
  5114   00173E                     u3390:
  5115   00173E  C029  F031         	movff	___fldiv@b,??___fldiv
  5116   001742  C02A  F032         	movff	___fldiv@b+1,??___fldiv+1
  5117   001746  C02B  F033         	movff	___fldiv@b+2,??___fldiv+2
  5118   00174A  C02C  F034         	movff	___fldiv@b+3,??___fldiv+3
  5119   00174E  3434               	rlcf	(??___fldiv+3)^0,w,c
  5120   001750  3234               	rrcf	(??___fldiv+3)^0,f,c
  5121   001752  3233               	rrcf	(??___fldiv+2)^0,f,c
  5122   001754  3232               	rrcf	(??___fldiv+1)^0,f,c
  5123   001756  3231               	rrcf	??___fldiv^0,f,c
  5124   001758  C031  F029         	movff	??___fldiv,___fldiv@b
  5125   00175C  C032  F02A         	movff	??___fldiv+1,___fldiv@b+1
  5126   001760  C033  F02B         	movff	??___fldiv+2,___fldiv@b+2
  5127   001764  C034  F02C         	movff	??___fldiv+3,___fldiv@b+3
  5128   001768  4A3A               	infsnz	___fldiv@new_exp^0,f,c
  5129   00176A  2A3B               	incf	(___fldiv@new_exp+1)^0,f,c
  5130   00176C                     l4589:
  5131   00176C  BE3B               	btfsc	(___fldiv@new_exp+1)^0,7,c
  5132   00176E  EFC1  F00B         	goto	u3401
  5133   001772  503B               	movf	(___fldiv@new_exp+1)^0,w,c
  5134   001774  E108               	bnz	u3400
  5135   001776  283A               	incf	___fldiv@new_exp^0,w,c
  5136   001778  A0D8               	btfss	status,0,c
  5137   00177A  EFC1  F00B         	goto	u3401
  5138   00177E  EFC3  F00B         	goto	u3400
  5139   001782                     u3401:
  5140   001782  EFCE  F00B         	goto	l4593
  5141   001786                     u3400:
  5142   001786  0E00               	movlw	0
  5143   001788  6E3B               	movwf	(___fldiv@new_exp+1)^0,c
  5144   00178A  683A               	setf	___fldiv@new_exp^0,c
  5145   00178C  0E00               	movlw	0
  5146   00178E  6E29               	movwf	___fldiv@b^0,c
  5147   001790  0E00               	movlw	0
  5148   001792  6E2A               	movwf	(___fldiv@b+1)^0,c
  5149   001794  0E00               	movlw	0
  5150   001796  6E2B               	movwf	(___fldiv@b+2)^0,c
  5151   001798  0E00               	movlw	0
  5152   00179A  6E2C               	movwf	(___fldiv@b+3)^0,c
  5153   00179C                     l4593:
  5154   00179C  BE3B               	btfsc	(___fldiv@new_exp+1)^0,7,c
  5155   00179E  EFDB  F00B         	goto	u3410
  5156   0017A2  503B               	movf	(___fldiv@new_exp+1)^0,w,c
  5157   0017A4  E106               	bnz	u3411
  5158   0017A6  043A               	decf	___fldiv@new_exp^0,w,c
  5159   0017A8  B0D8               	btfsc	status,0,c
  5160   0017AA  EFD9  F00B         	goto	u3411
  5161   0017AE  EFDB  F00B         	goto	u3410
  5162   0017B2                     u3411:
  5163   0017B2  EFE9  F00B         	goto	l4597
  5164   0017B6                     u3410:
  5165   0017B6  0E00               	movlw	0
  5166   0017B8  6E3B               	movwf	(___fldiv@new_exp+1)^0,c
  5167   0017BA  0E00               	movlw	0
  5168   0017BC  6E3A               	movwf	___fldiv@new_exp^0,c
  5169   0017BE  0E00               	movlw	0
  5170   0017C0  6E29               	movwf	___fldiv@b^0,c
  5171   0017C2  0E00               	movlw	0
  5172   0017C4  6E2A               	movwf	(___fldiv@b+1)^0,c
  5173   0017C6  0E00               	movlw	0
  5174   0017C8  6E2B               	movwf	(___fldiv@b+2)^0,c
  5175   0017CA  0E00               	movlw	0
  5176   0017CC  6E2C               	movwf	(___fldiv@b+3)^0,c
  5177   0017CE  0E00               	movlw	0
  5178   0017D0  6E39               	movwf	___fldiv@sign^0,c
  5179   0017D2                     l4597:
  5180   0017D2  C03A  F040         	movff	___fldiv@new_exp,___fldiv@bexp
  5181   0017D6  A040               	btfss	___fldiv@bexp^0,0,c
  5182   0017D8  EFF0  F00B         	goto	u3421
  5183   0017DC  EFF2  F00B         	goto	u3420
  5184   0017E0                     u3421:
  5185   0017E0  EFF5  F00B         	goto	l4603
  5186   0017E4                     u3420:
  5187   0017E4  8E2B               	bsf	(___fldiv@b+2)^0,7,c
  5188   0017E6  EFF6  F00B         	goto	l4605
  5189   0017EA                     l4603:
  5190   0017EA  9E2B               	bcf	(___fldiv@b+2)^0,7,c
  5191   0017EC                     l4605:
  5192   0017EC  90D8               	bcf	status,0,c
  5193   0017EE  3040               	rrcf	___fldiv@bexp^0,w,c
  5194   0017F0  6E2C               	movwf	(___fldiv@b+3)^0,c
  5195   0017F2  EFAC  F00A         	goto	l4519
  5196   0017F6                     l1893:
  5197   0017F6  0012               	return		;funcret
  5198   0017F8                     __end_of___fldiv:
  5199                           	callstack 0
  5200                           
  5201 ;; *************** function _ADC_get_conversion_result_blocking *****************
  5202 ;; Defined at:
  5203 ;;		line 219 in file "MCAL_Layer/ADC/hal_adc.c"
  5204 ;; Parameters:    Size  Location     Type
  5205 ;;  adc_obj         1   10[COMRAM] PTR const struct .
  5206 ;;		 -> adc_1(4), 
  5207 ;;  chanel          1   11[COMRAM] enum E3045
  5208 ;;  adc_result      1   12[COMRAM] PTR unsigned short 
  5209 ;;		 -> lm35_res(2), 
  5210 ;; Auto vars:     Size  Location     Type
  5211 ;;  ret             1   13[COMRAM] unsigned char 
  5212 ;; Return value:  Size  Location     Type
  5213 ;;                  1    wreg      unsigned char 
  5214 ;; Registers used:
  5215 ;;		wreg, fsr2l, fsr2h, status,2, status,0, cstack
  5216 ;; Tracked objects:
  5217 ;;		On entry : 0/0
  5218 ;;		On exit  : 0/0
  5219 ;;		Unchanged: 0/0
  5220 ;; Data sizes:     COMRAM   BANK0   BANK1   BANK2   BANK3   BANK4   BANK5   BANK6   BANK7   BANK8   BANK9  BANK10  BANK1
      +1  BANK12  BANK13  BANK14  BANK15
  5221 ;;      Params:         3       0       0       0       0       0       0       0       0       0       0       0       
      +0       0       0       0       0
  5222 ;;      Locals:         1       0       0       0       0       0       0       0       0       0       0       0       
      +0       0       0       0       0
  5223 ;;      Temps:          0       0       0       0       0       0       0       0       0       0       0       0       
      +0       0       0       0       0
  5224 ;;      Totals:         4       0       0       0       0       0       0       0       0       0       0       0       
      +0       0       0       0       0
  5225 ;;Total ram usage:        4 bytes
  5226 ;; Hardware stack levels used: 1
  5227 ;; Hardware stack levels required when called: 4
  5228 ;; This function calls:
  5229 ;;		_ADC_get_conversion_result
  5230 ;;		_ADC_select_channel
  5231 ;;		_ADC_start_conversion
  5232 ;; This function is called by:
  5233 ;;		_main
  5234 ;; This function uses a non-reentrant model
  5235 ;;
  5236                           
  5237                           	psect	text30
  5238   0028EC                     __ptext30:
  5239                           	callstack 0
  5240   0028EC                     _ADC_get_conversion_result_blocking:
  5241                           	callstack 26
  5242   0028EC                     
  5243                           ;MCAL_Layer/ADC/hal_adc.c: 221:     if(adc_obj == ((void*)0) )
  5244   0028EC  500B               	movf	ADC_get_conversion_result_blocking@adc_obj^0,w,c
  5245   0028EE  A4D8               	btfss	status,2,c
  5246   0028F0  EF7C  F014         	goto	u3181
  5247   0028F4  EF7E  F014         	goto	u3180
  5248   0028F8                     u3181:
  5249   0028F8  EF82  F014         	goto	l4465
  5250   0028FC                     u3180:
  5251   0028FC                     
  5252                           ;MCAL_Layer/ADC/hal_adc.c: 222:     {;MCAL_Layer/ADC/hal_adc.c: 223:         ret=((Std_R
      +                          etrunType) 0x00);
  5253   0028FC  0E00               	movlw	0
  5254   0028FE  6E0E               	movwf	ADC_get_conversion_result_blocking@ret^0,c
  5255                           
  5256                           ;MCAL_Layer/ADC/hal_adc.c: 224:     }
  5257   002900  EF9E  F014         	goto	l4471
  5258   002904                     l4465:
  5259                           
  5260                           ;MCAL_Layer/ADC/hal_adc.c: 226:     {;MCAL_Layer/ADC/hal_adc.c: 227:         ret= ADC_se
      +                          lect_channel(adc_obj,chanel);
  5261   002904  C00B  F005         	movff	ADC_get_conversion_result_blocking@adc_obj,ADC_select_channel@adc_obj
  5262   002908  C00C  F006         	movff	ADC_get_conversion_result_blocking@chanel,ADC_select_channel@chanel
  5263   00290C  ECA6  F015         	call	_ADC_select_channel	;wreg free
  5264   002910  6E0E               	movwf	ADC_get_conversion_result_blocking@ret^0,c
  5265                           
  5266                           ;MCAL_Layer/ADC/hal_adc.c: 228:         ret&=ADC_start_conversion(adc_obj);
  5267   002912  C00B  F002         	movff	ADC_get_conversion_result_blocking@adc_obj,ADC_start_conversion@adc_obj
  5268   002916  EC35  F016         	call	_ADC_start_conversion	;wreg free
  5269   00291A  160E               	andwf	ADC_get_conversion_result_blocking@ret^0,f,c
  5270   00291C                     l1264:
  5271   00291C  B2C2               	btfsc	194,1,c	;volatile
  5272   00291E  EF93  F014         	goto	u3191
  5273   002922  EF95  F014         	goto	u3190
  5274   002926                     u3191:
  5275   002926  EF8E  F014         	goto	l1264
  5276   00292A                     u3190:
  5277   00292A                     
  5278                           ;MCAL_Layer/ADC/hal_adc.c: 230:         ret&=ADC_get_conversion_result(adc_obj,adc_resul
      +                          t);
  5279   00292A  C00B  F002         	movff	ADC_get_conversion_result_blocking@adc_obj,ADC_get_conversion_result@adc_obj
  5280   00292E  C00D  F003         	movff	ADC_get_conversion_result_blocking@adc_result,ADC_get_conversion_result@adc_resul
      +                          t
  5281   002932  EC8C  F013         	call	_ADC_get_conversion_result	;wreg free
  5282   002936  160E               	andwf	ADC_get_conversion_result_blocking@ret^0,f,c
  5283   002938                     
  5284                           ;MCAL_Layer/ADC/hal_adc.c: 232:         ret=((Std_RetrunType) 0x01);
  5285   002938  0E01               	movlw	1
  5286   00293A  6E0E               	movwf	ADC_get_conversion_result_blocking@ret^0,c
  5287   00293C                     l4471:
  5288                           
  5289                           ;MCAL_Layer/ADC/hal_adc.c: 236:     return ret;
  5290   00293C  500E               	movf	ADC_get_conversion_result_blocking@ret^0,w,c
  5291   00293E  0012               	return		;funcret
  5292   002940                     __end_of_ADC_get_conversion_result_blocking:
  5293                           	callstack 0
  5294                           
  5295 ;; *************** function _ADC_start_conversion *****************
  5296 ;; Defined at:
  5297 ;;		line 108 in file "MCAL_Layer/ADC/hal_adc.c"
  5298 ;; Parameters:    Size  Location     Type
  5299 ;;  adc_obj         1    1[COMRAM] PTR const struct .
  5300 ;;		 -> adc_1(4), 
  5301 ;; Auto vars:     Size  Location     Type
  5302 ;;  ret             1    2[COMRAM] unsigned char 
  5303 ;; Return value:  Size  Location     Type
  5304 ;;                  1    wreg      unsigned char 
  5305 ;; Registers used:
  5306 ;;		wreg, status,2
  5307 ;; Tracked objects:
  5308 ;;		On entry : 0/0
  5309 ;;		On exit  : 0/0
  5310 ;;		Unchanged: 0/0
  5311 ;; Data sizes:     COMRAM   BANK0   BANK1   BANK2   BANK3   BANK4   BANK5   BANK6   BANK7   BANK8   BANK9  BANK10  BANK1
      +1  BANK12  BANK13  BANK14  BANK15
  5312 ;;      Params:         1       0       0       0       0       0       0       0       0       0       0       0       
      +0       0       0       0       0
  5313 ;;      Locals:         1       0       0       0       0       0       0       0       0       0       0       0       
      +0       0       0       0       0
  5314 ;;      Temps:          0       0       0       0       0       0       0       0       0       0       0       0       
      +0       0       0       0       0
  5315 ;;      Totals:         2       0       0       0       0       0       0       0       0       0       0       0       
      +0       0       0       0       0
  5316 ;;Total ram usage:        2 bytes
  5317 ;; Hardware stack levels used: 1
  5318 ;; Hardware stack levels required when called: 2
  5319 ;; This function calls:
  5320 ;;		Nothing
  5321 ;; This function is called by:
  5322 ;;		_ADC_get_conversion_result_blocking
  5323 ;;		_ADC_get_conversion_result_interrupt
  5324 ;; This function uses a non-reentrant model
  5325 ;;
  5326                           
  5327                           	psect	text31
  5328   002C6A                     __ptext31:
  5329                           	callstack 0
  5330   002C6A                     _ADC_start_conversion:
  5331                           	callstack 27
  5332   002C6A                     
  5333                           ;MCAL_Layer/ADC/hal_adc.c: 110:     if(adc_obj == ((void*)0) )
  5334   002C6A  5002               	movf	ADC_start_conversion@adc_obj^0,w,c
  5335   002C6C  A4D8               	btfss	status,2,c
  5336   002C6E  EF3B  F016         	goto	u3101
  5337   002C72  EF3D  F016         	goto	u3100
  5338   002C76                     u3101:
  5339   002C76  EF41  F016         	goto	l1238
  5340   002C7A                     u3100:
  5341   002C7A                     
  5342                           ;MCAL_Layer/ADC/hal_adc.c: 111:     {;MCAL_Layer/ADC/hal_adc.c: 112:         ret=((Std_R
      +                          etrunType) 0x00);
  5343   002C7A  0E00               	movlw	0
  5344   002C7C  6E03               	movwf	ADC_start_conversion@ret^0,c
  5345                           
  5346                           ;MCAL_Layer/ADC/hal_adc.c: 113:     }
  5347   002C7E  EF44  F016         	goto	l1239
  5348   002C82                     l1238:
  5349                           
  5350                           ;MCAL_Layer/ADC/hal_adc.c: 115:     {;MCAL_Layer/ADC/hal_adc.c: 116:         (ADCON0bits
      +                          .GODONE=1);
  5351   002C82  82C2               	bsf	194,1,c	;volatile
  5352   002C84                     
  5353                           ;MCAL_Layer/ADC/hal_adc.c: 118:         ret=((Std_RetrunType) 0x01);
  5354   002C84  0E01               	movlw	1
  5355   002C86  6E03               	movwf	ADC_start_conversion@ret^0,c
  5356   002C88                     l1239:
  5357                           
  5358                           ;MCAL_Layer/ADC/hal_adc.c: 122:     return ret;
  5359   002C88  5003               	movf	ADC_start_conversion@ret^0,w,c
  5360   002C8A  0012               	return		;funcret
  5361   002C8C                     __end_of_ADC_start_conversion:
  5362                           	callstack 0
  5363                           
  5364 ;; *************** function _ADC_select_channel *****************
  5365 ;; Defined at:
  5366 ;;		line 156 in file "MCAL_Layer/ADC/hal_adc.c"
  5367 ;; Parameters:    Size  Location     Type
  5368 ;;  adc_obj         1    4[COMRAM] PTR const struct .
  5369 ;;		 -> adc_1(4), 
  5370 ;;  chanel          1    5[COMRAM] enum E3045
  5371 ;; Auto vars:     Size  Location     Type
  5372 ;;  ret             1    7[COMRAM] unsigned char 
  5373 ;; Return value:  Size  Location     Type
  5374 ;;                  1    wreg      unsigned char 
  5375 ;; Registers used:
  5376 ;;		wreg, status,2, status,0, cstack
  5377 ;; Tracked objects:
  5378 ;;		On entry : 0/0
  5379 ;;		On exit  : 0/0
  5380 ;;		Unchanged: 0/0
  5381 ;; Data sizes:     COMRAM   BANK0   BANK1   BANK2   BANK3   BANK4   BANK5   BANK6   BANK7   BANK8   BANK9  BANK10  BANK1
      +1  BANK12  BANK13  BANK14  BANK15
  5382 ;;      Params:         2       0       0       0       0       0       0       0       0       0       0       0       
      +0       0       0       0       0
  5383 ;;      Locals:         1       0       0       0       0       0       0       0       0       0       0       0       
      +0       0       0       0       0
  5384 ;;      Temps:          1       0       0       0       0       0       0       0       0       0       0       0       
      +0       0       0       0       0
  5385 ;;      Totals:         4       0       0       0       0       0       0       0       0       0       0       0       
      +0       0       0       0       0
  5386 ;;Total ram usage:        4 bytes
  5387 ;; Hardware stack levels used: 1
  5388 ;; Hardware stack levels required when called: 3
  5389 ;; This function calls:
  5390 ;;		_configure_adc_channel_port
  5391 ;; This function is called by:
  5392 ;;		_ADC_get_conversion_result_blocking
  5393 ;;		_ADC_get_conversion_result_interrupt
  5394 ;; This function uses a non-reentrant model
  5395 ;;
  5396                           
  5397                           	psect	text32
  5398   002B4C                     __ptext32:
  5399                           	callstack 0
  5400   002B4C                     _ADC_select_channel:
  5401                           	callstack 26
  5402   002B4C                     
  5403                           ;MCAL_Layer/ADC/hal_adc.c: 158:     if(adc_obj == ((void*)0) )
  5404   002B4C  5005               	movf	ADC_select_channel@adc_obj^0,w,c
  5405   002B4E  A4D8               	btfss	status,2,c
  5406   002B50  EFAC  F015         	goto	u3111
  5407   002B54  EFAE  F015         	goto	u3110
  5408   002B58                     u3111:
  5409   002B58  EFB2  F015         	goto	l4391
  5410   002B5C                     u3110:
  5411   002B5C                     
  5412                           ;MCAL_Layer/ADC/hal_adc.c: 159:     {;MCAL_Layer/ADC/hal_adc.c: 160:         ret=((Std_R
      +                          etrunType) 0x00);
  5413   002B5C  0E00               	movlw	0
  5414   002B5E  6E08               	movwf	ADC_select_channel@ret^0,c
  5415                           
  5416                           ;MCAL_Layer/ADC/hal_adc.c: 161:     }
  5417   002B60  EFC0  F015         	goto	l4397
  5418   002B64                     l4391:
  5419                           
  5420                           ;MCAL_Layer/ADC/hal_adc.c: 163:     {;MCAL_Layer/ADC/hal_adc.c: 165:         ADCON0bits.
      +                          CHS=chanel;
  5421   002B64  C006  F007         	movff	ADC_select_channel@chanel,??_ADC_select_channel
  5422   002B68  4607               	rlncf	??_ADC_select_channel^0,f,c
  5423   002B6A  4607               	rlncf	??_ADC_select_channel^0,f,c
  5424   002B6C  50C2               	movf	194,w,c	;volatile
  5425   002B6E  1807               	xorwf	??_ADC_select_channel^0,w,c
  5426   002B70  0BC3               	andlw	-61
  5427   002B72  1807               	xorwf	??_ADC_select_channel^0,w,c
  5428   002B74  6EC2               	movwf	194,c	;volatile
  5429   002B76                     
  5430                           ;MCAL_Layer/ADC/hal_adc.c: 166:         configure_adc_channel_port(chanel);
  5431   002B76  5006               	movf	ADC_select_channel@chanel^0,w,c
  5432   002B78  ECE9  F011         	call	_configure_adc_channel_port
  5433   002B7C                     
  5434                           ;MCAL_Layer/ADC/hal_adc.c: 168:         ret=((Std_RetrunType) 0x01);
  5435   002B7C  0E01               	movlw	1
  5436   002B7E  6E08               	movwf	ADC_select_channel@ret^0,c
  5437   002B80                     l4397:
  5438                           
  5439                           ;MCAL_Layer/ADC/hal_adc.c: 172:     return ret;
  5440   002B80  5008               	movf	ADC_select_channel@ret^0,w,c
  5441   002B82  0012               	return		;funcret
  5442   002B84                     __end_of_ADC_select_channel:
  5443                           	callstack 0
  5444                           
  5445 ;; *************** function _configure_adc_channel_port *****************
  5446 ;; Defined at:
  5447 ;;		line 294 in file "MCAL_Layer/ADC/hal_adc.c"
  5448 ;; Parameters:    Size  Location     Type
  5449 ;;  adc_ch          1    wreg     enum E3045
  5450 ;; Auto vars:     Size  Location     Type
  5451 ;;  adc_ch          1    3[COMRAM] enum E3045
  5452 ;; Return value:  Size  Location     Type
  5453 ;;                  1    wreg      void 
  5454 ;; Registers used:
  5455 ;;		wreg, status,2, status,0
  5456 ;; Tracked objects:
  5457 ;;		On entry : 0/0
  5458 ;;		On exit  : 0/0
  5459 ;;		Unchanged: 0/0
  5460 ;; Data sizes:     COMRAM   BANK0   BANK1   BANK2   BANK3   BANK4   BANK5   BANK6   BANK7   BANK8   BANK9  BANK10  BANK1
      +1  BANK12  BANK13  BANK14  BANK15
  5461 ;;      Params:         0       0       0       0       0       0       0       0       0       0       0       0       
      +0       0       0       0       0
  5462 ;;      Locals:         1       0       0       0       0       0       0       0       0       0       0       0       
      +0       0       0       0       0
  5463 ;;      Temps:          2       0       0       0       0       0       0       0       0       0       0       0       
      +0       0       0       0       0
  5464 ;;      Totals:         3       0       0       0       0       0       0       0       0       0       0       0       
      +0       0       0       0       0
  5465 ;;Total ram usage:        3 bytes
  5466 ;; Hardware stack levels used: 1
  5467 ;; Hardware stack levels required when called: 2
  5468 ;; This function calls:
  5469 ;;		Nothing
  5470 ;; This function is called by:
  5471 ;;		_ADC_Init
  5472 ;;		_ADC_select_channel
  5473 ;; This function uses a non-reentrant model
  5474 ;;
  5475                           
  5476                           	psect	text33
  5477   0023D2                     __ptext33:
  5478                           	callstack 0
  5479   0023D2                     _configure_adc_channel_port:
  5480                           	callstack 26
  5481                           
  5482                           ;incstack = 0
  5483                           ;configure_adc_channel_port@adc_ch stored from wreg
  5484   0023D2  6E04               	movwf	configure_adc_channel_port@adc_ch^0,c
  5485   0023D4                     
  5486                           ;MCAL_Layer/ADC/hal_adc.c: 295:     switch(adc_ch){
  5487   0023D4  EF04  F012         	goto	l4227
  5488   0023D8                     l4199:
  5489   0023D8  8092               	bsf	146,0,c	;volatile
  5490   0023DA  EF45  F012         	goto	l1308
  5491   0023DE                     l4201:
  5492   0023DE  8292               	bsf	146,1,c	;volatile
  5493   0023E0  EF45  F012         	goto	l1308
  5494   0023E4                     l4203:
  5495   0023E4  8492               	bsf	146,2,c	;volatile
  5496   0023E6  EF45  F012         	goto	l1308
  5497   0023EA                     l4205:
  5498   0023EA  8692               	bsf	146,3,c	;volatile
  5499   0023EC  EF45  F012         	goto	l1308
  5500   0023F0                     l4207:
  5501   0023F0  8A92               	bsf	146,5,c	;volatile
  5502   0023F2  EF45  F012         	goto	l1308
  5503   0023F6                     l4209:
  5504   0023F6  8096               	bsf	150,0,c	;volatile
  5505   0023F8  EF45  F012         	goto	l1308
  5506   0023FC                     l4215:
  5507   0023FC  8493               	bsf	147,2,c	;volatile
  5508   0023FE  EF45  F012         	goto	l1308
  5509   002402                     l4221:
  5510   002402  8892               	bsf	146,4,c	;volatile
  5511   002404  EF45  F012         	goto	l1308
  5512   002408                     l4227:
  5513   002408  5004               	movf	configure_adc_channel_port@adc_ch^0,w,c
  5514   00240A  6E02               	movwf	??_configure_adc_channel_port^0,c
  5515   00240C  6A03               	clrf	(??_configure_adc_channel_port+1)^0,c
  5516                           
  5517                           ; Switch on 2 bytes has been partitioned into a top level switch of size 1, and 1 sub-sw
      +                          itches
  5518                           ; Switch size 1, requested type "simple"
  5519                           ; Number of cases is 1, Range of values is 0 to 0
  5520                           ; switch strategies available:
  5521                           ; Name         Instructions Cycles
  5522                           ; simple_byte            4     3 (average)
  5523                           ;	Chosen strategy is simple_byte
  5524   00240E  5003               	movf	(??_configure_adc_channel_port+1)^0,w,c
  5525   002410  0A00               	xorlw	0	; case 0
  5526   002412  B4D8               	btfsc	status,2,c
  5527   002414  EF0E  F012         	goto	l5389
  5528   002418  EF45  F012         	goto	l1308
  5529   00241C                     l5389:
  5530                           
  5531                           ; Switch size 1, requested type "simple"
  5532                           ; Number of cases is 13, Range of values is 0 to 12
  5533                           ; switch strategies available:
  5534                           ; Name         Instructions Cycles
  5535                           ; simple_byte           40    21 (average)
  5536                           ;	Chosen strategy is simple_byte
  5537   00241C  5002               	movf	??_configure_adc_channel_port^0,w,c
  5538   00241E  0A00               	xorlw	0	; case 0
  5539   002420  B4D8               	btfsc	status,2,c
  5540   002422  EFEC  F011         	goto	l4199
  5541   002426  0A01               	xorlw	1	; case 1
  5542   002428  B4D8               	btfsc	status,2,c
  5543   00242A  EFEF  F011         	goto	l4201
  5544   00242E  0A03               	xorlw	3	; case 2
  5545   002430  B4D8               	btfsc	status,2,c
  5546   002432  EFF2  F011         	goto	l4203
  5547   002436  0A01               	xorlw	1	; case 3
  5548   002438  B4D8               	btfsc	status,2,c
  5549   00243A  EFF5  F011         	goto	l4205
  5550   00243E  0A07               	xorlw	7	; case 4
  5551   002440  B4D8               	btfsc	status,2,c
  5552   002442  EFF8  F011         	goto	l4207
  5553   002446  0A01               	xorlw	1	; case 5
  5554   002448  B4D8               	btfsc	status,2,c
  5555   00244A  EFFB  F011         	goto	l4209
  5556   00244E  0A03               	xorlw	3	; case 6
  5557   002450  B4D8               	btfsc	status,2,c
  5558   002452  EFEF  F011         	goto	l4201
  5559   002456  0A01               	xorlw	1	; case 7
  5560   002458  B4D8               	btfsc	status,2,c
  5561   00245A  EFF2  F011         	goto	l4203
  5562   00245E  0A0F               	xorlw	15	; case 8
  5563   002460  B4D8               	btfsc	status,2,c
  5564   002462  EFFE  F011         	goto	l4215
  5565   002466  0A01               	xorlw	1	; case 9
  5566   002468  B4D8               	btfsc	status,2,c
  5567   00246A  EFF5  F011         	goto	l4205
  5568   00246E  0A03               	xorlw	3	; case 10
  5569   002470  B4D8               	btfsc	status,2,c
  5570   002472  EFEF  F011         	goto	l4201
  5571   002476  0A01               	xorlw	1	; case 11
  5572   002478  B4D8               	btfsc	status,2,c
  5573   00247A  EF01  F012         	goto	l4221
  5574   00247E  0A07               	xorlw	7	; case 12
  5575   002480  B4D8               	btfsc	status,2,c
  5576   002482  EFEC  F011         	goto	l4199
  5577   002486  EF45  F012         	goto	l1308
  5578   00248A                     l1308:
  5579   00248A  0012               	return		;funcret
  5580   00248C                     __end_of_configure_adc_channel_port:
  5581                           	callstack 0
  5582                           
  5583 ;; *************** function _ADC_get_conversion_result *****************
  5584 ;; Defined at:
  5585 ;;		line 182 in file "MCAL_Layer/ADC/hal_adc.c"
  5586 ;; Parameters:    Size  Location     Type
  5587 ;;  adc_obj         1    1[COMRAM] PTR const struct .
  5588 ;;		 -> adc_1(4), 
  5589 ;;  adc_result      1    2[COMRAM] PTR unsigned short 
  5590 ;;		 -> lm35_res(2), 
  5591 ;; Auto vars:     Size  Location     Type
  5592 ;;  ret             1    9[COMRAM] unsigned char 
  5593 ;; Return value:  Size  Location     Type
  5594 ;;                  1    wreg      unsigned char 
  5595 ;; Registers used:
  5596 ;;		wreg, fsr2l, fsr2h, status,2, status,0
  5597 ;; Tracked objects:
  5598 ;;		On entry : 0/0
  5599 ;;		On exit  : 0/0
  5600 ;;		Unchanged: 0/0
  5601 ;; Data sizes:     COMRAM   BANK0   BANK1   BANK2   BANK3   BANK4   BANK5   BANK6   BANK7   BANK8   BANK9  BANK10  BANK1
      +1  BANK12  BANK13  BANK14  BANK15
  5602 ;;      Params:         2       0       0       0       0       0       0       0       0       0       0       0       
      +0       0       0       0       0
  5603 ;;      Locals:         1       0       0       0       0       0       0       0       0       0       0       0       
      +0       0       0       0       0
  5604 ;;      Temps:          6       0       0       0       0       0       0       0       0       0       0       0       
      +0       0       0       0       0
  5605 ;;      Totals:         9       0       0       0       0       0       0       0       0       0       0       0       
      +0       0       0       0       0
  5606 ;;Total ram usage:        9 bytes
  5607 ;; Hardware stack levels used: 1
  5608 ;; Hardware stack levels required when called: 2
  5609 ;; This function calls:
  5610 ;;		Nothing
  5611 ;; This function is called by:
  5612 ;;		_ADC_get_conversion_result_blocking
  5613 ;; This function uses a non-reentrant model
  5614 ;;
  5615                           
  5616                           	psect	text34
  5617   002718                     __ptext34:
  5618                           	callstack 0
  5619   002718                     _ADC_get_conversion_result:
  5620                           	callstack 27
  5621   002718                     
  5622                           ;MCAL_Layer/ADC/hal_adc.c: 184:     if(adc_obj == ((void*)0) )
  5623   002718  5002               	movf	ADC_get_conversion_result@adc_obj^0,w,c
  5624   00271A  A4D8               	btfss	status,2,c
  5625   00271C  EF92  F013         	goto	u3121
  5626   002720  EF94  F013         	goto	u3120
  5627   002724                     u3121:
  5628   002724  EF98  F013         	goto	l4405
  5629   002728                     u3120:
  5630   002728                     
  5631                           ;MCAL_Layer/ADC/hal_adc.c: 185:     {;MCAL_Layer/ADC/hal_adc.c: 186:         ret=((Std_R
      +                          etrunType) 0x00);
  5632   002728  0E00               	movlw	0
  5633   00272A  6E0A               	movwf	ADC_get_conversion_result@ret^0,c
  5634                           
  5635                           ;MCAL_Layer/ADC/hal_adc.c: 187:     }
  5636   00272C  EFD2  F013         	goto	l4417
  5637   002730                     l4405:
  5638                           
  5639                           ;MCAL_Layer/ADC/hal_adc.c: 189:     {;MCAL_Layer/ADC/hal_adc.c: 190:         if(adc_obj-
      +                          >result_format == 0U)
  5640   002730  5002               	movf	ADC_get_conversion_result@adc_obj^0,w,c
  5641   002732  6ED9               	movwf	fsr2l,c
  5642   002734  6ADA               	clrf	fsr2h,c
  5643   002736  0E03               	movlw	3
  5644   002738  26D9               	addwf	fsr2l,f,c
  5645   00273A  B0DF               	btfsc	indf2,0,c
  5646   00273C  EFA2  F013         	goto	u3131
  5647   002740  EFA4  F013         	goto	u3130
  5648   002744                     u3131:
  5649   002744  EFBF  F013         	goto	l4409
  5650   002748                     u3130:
  5651   002748                     
  5652                           ;MCAL_Layer/ADC/hal_adc.c: 191:         {;MCAL_Layer/ADC/hal_adc.c: 192:             *ad
      +                          c_result=(uint16)(ADRESH+((ADRESL>>6)<<8));
  5653   002748  CFC3 F004          	movff	4035,??_ADC_get_conversion_result	;volatile
  5654   00274C  0E06               	movlw	6
  5655   00274E  6E05               	movwf	(??_ADC_get_conversion_result+1)^0,c
  5656   002750                     u3145:
  5657   002750  90D8               	bcf	status,0,c
  5658   002752  3204               	rrcf	??_ADC_get_conversion_result^0,f,c
  5659   002754  2E05               	decfsz	(??_ADC_get_conversion_result+1)^0,f,c
  5660   002756  EFA8  F013         	goto	u3145
  5661   00275A  5004               	movf	??_ADC_get_conversion_result^0,w,c
  5662   00275C  6E07               	movwf	(??_ADC_get_conversion_result+3)^0,c
  5663   00275E  6A06               	clrf	(??_ADC_get_conversion_result+2)^0,c
  5664   002760  50C4               	movf	196,w,c	;volatile
  5665   002762  2406               	addwf	(??_ADC_get_conversion_result+2)^0,w,c
  5666   002764  6E08               	movwf	(??_ADC_get_conversion_result+4)^0,c
  5667   002766  0E00               	movlw	0
  5668   002768  2007               	addwfc	(??_ADC_get_conversion_result+3)^0,w,c
  5669   00276A  6E09               	movwf	(??_ADC_get_conversion_result+5)^0,c
  5670   00276C  5003               	movf	ADC_get_conversion_result@adc_result^0,w,c
  5671   00276E  6ED9               	movwf	fsr2l,c
  5672   002770  6ADA               	clrf	fsr2h,c
  5673   002772  C008  FFDE         	movff	??_ADC_get_conversion_result+4,postinc2
  5674   002776  C009  FFDD         	movff	??_ADC_get_conversion_result+5,postdec2
  5675                           
  5676                           ;MCAL_Layer/ADC/hal_adc.c: 194:         }
  5677   00277A  EFD0  F013         	goto	l4415
  5678   00277E                     l4409:
  5679   00277E                     
  5680                           ;MCAL_Layer/ADC/hal_adc.c: 196:         {;MCAL_Layer/ADC/hal_adc.c: 197:             *ad
      +                          c_result=(uint16)((ADRESH<<8)+ADRESL);
  5681   00277E  50C3               	movf	195,w,c	;volatile
  5682   002780  CFC4 F004          	movff	4036,??_ADC_get_conversion_result	;volatile
  5683   002784  6A05               	clrf	(??_ADC_get_conversion_result+1)^0,c
  5684   002786  C004  F005         	movff	??_ADC_get_conversion_result,??_ADC_get_conversion_result+1
  5685   00278A  6A04               	clrf	??_ADC_get_conversion_result^0,c
  5686   00278C  2604               	addwf	??_ADC_get_conversion_result^0,f,c
  5687   00278E  0E00               	movlw	0
  5688   002790  2205               	addwfc	(??_ADC_get_conversion_result+1)^0,f,c
  5689   002792  5003               	movf	ADC_get_conversion_result@adc_result^0,w,c
  5690   002794  6ED9               	movwf	fsr2l,c
  5691   002796  6ADA               	clrf	fsr2h,c
  5692   002798  C004  FFDE         	movff	??_ADC_get_conversion_result,postinc2
  5693   00279C  C005  FFDD         	movff	??_ADC_get_conversion_result+1,postdec2
  5694   0027A0                     l4415:
  5695                           
  5696                           ;MCAL_Layer/ADC/hal_adc.c: 204:         ret=((Std_RetrunType) 0x01);
  5697   0027A0  0E01               	movlw	1
  5698   0027A2  6E0A               	movwf	ADC_get_conversion_result@ret^0,c
  5699   0027A4                     l4417:
  5700                           
  5701                           ;MCAL_Layer/ADC/hal_adc.c: 208:     return ret;
  5702   0027A4  500A               	movf	ADC_get_conversion_result@ret^0,w,c
  5703   0027A6  0012               	return		;funcret
  5704   0027A8                     __end_of_ADC_get_conversion_result:
  5705                           	callstack 0
  5706                           
  5707 ;; *************** function _General_Interrupt_Manager *****************
  5708 ;; Defined at:
  5709 ;;		line 35 in file "MCAL_Layer/Interrupt/mcal_interrupt_manager.c"
  5710 ;; Parameters:    Size  Location     Type
  5711 ;;		None
  5712 ;; Auto vars:     Size  Location     Type
  5713 ;;		None
  5714 ;; Return value:  Size  Location     Type
  5715 ;;                  1    wreg      void 
  5716 ;; Registers used:
  5717 ;;		wreg, status,2, status,0, cstack
  5718 ;; Tracked objects:
  5719 ;;		On entry : 0/0
  5720 ;;		On exit  : 0/0
  5721 ;;		Unchanged: 0/0
  5722 ;; Data sizes:     COMRAM   BANK0   BANK1   BANK2   BANK3   BANK4   BANK5   BANK6   BANK7   BANK8   BANK9  BANK10  BANK1
      +1  BANK12  BANK13  BANK14  BANK15
  5723 ;;      Params:         0       0       0       0       0       0       0       0       0       0       0       0       
      +0       0       0       0       0
  5724 ;;      Locals:         0       0       0       0       0       0       0       0       0       0       0       0       
      +0       0       0       0       0
  5725 ;;      Temps:          0       0       0       0       0       0       0       0       0       0       0       0       
      +0       0       0       0       0
  5726 ;;      Totals:         0       0       0       0       0       0       0       0       0       0       0       0       
      +0       0       0       0       0
  5727 ;;Total ram usage:        0 bytes
  5728 ;; Hardware stack levels used: 1
  5729 ;; Hardware stack levels required when called: 1
  5730 ;; This function calls:
  5731 ;;		_INT0_ISR
  5732 ;;		_INT1_ISR
  5733 ;;		_INT2_ISR
  5734 ;;		_RB4_ISR
  5735 ;;		_RB5_ISR
  5736 ;;		_RB6_ISR
  5737 ;;		_RB7_ISR
  5738 ;; This function is called by:
  5739 ;;		Interrupt level 2
  5740 ;; This function uses a non-reentrant model
  5741 ;;
  5742                           
  5743                           	psect	intcode
  5744   000008                     __pintcode:
  5745                           	callstack 0
  5746   000008                     _General_Interrupt_Manager:
  5747                           	callstack 23
  5748                           
  5749                           ;incstack = 0
  5750   000008  827C               	bsf	int$flags,1,c	;set compiler interrupt flag (level 2)
  5751   00000A  EDFC  F00B         	call	int_func,f	;refresh shadow registers
  5752                           
  5753                           	psect	intcode_body
  5754   0017F8                     __pintcode_body:
  5755                           	callstack 23
  5756   0017F8                     int_func:
  5757                           	callstack 23
  5758   0017F8  0006               	pop		; remove dummy address from shadow register refresh
  5759   0017FA                     
  5760                           ;MCAL_Layer/Interrupt/mcal_interrupt_manager.c: 39:     if((1==INTCONbits.INT0IE) && (1=
      +                          =INTCONbits.INT0IF)){
  5761   0017FA  A8F2               	btfss	242,4,c	;volatile
  5762   0017FC  EF02  F00C         	goto	i2u207_41
  5763   001800  EF04  F00C         	goto	i2u207_40
  5764   001804                     i2u207_41:
  5765   001804  EF0D  F00C         	goto	i2l1020
  5766   001808                     i2u207_40:
  5767   001808  A2F2               	btfss	242,1,c	;volatile
  5768   00180A  EF09  F00C         	goto	i2u208_41
  5769   00180E  EF0B  F00C         	goto	i2u208_40
  5770   001812                     i2u208_41:
  5771   001812  EF0D  F00C         	goto	i2l1020
  5772   001816                     i2u208_40:
  5773   001816                     
  5774                           ;MCAL_Layer/Interrupt/mcal_interrupt_manager.c: 40:         INT0_ISR();
  5775   001816  EC8D  F016         	call	_INT0_ISR	;wreg free
  5776   00181A                     i2l1020:
  5777                           
  5778                           ;MCAL_Layer/Interrupt/mcal_interrupt_manager.c: 43:     if((1==INTCON3bits.INT1IE) && (1
      +                          ==INTCON3bits.INT1IF)){
  5779   00181A  A6F0               	btfss	240,3,c	;volatile
  5780   00181C  EF12  F00C         	goto	i2u209_41
  5781   001820  EF14  F00C         	goto	i2u209_40
  5782   001824                     i2u209_41:
  5783   001824  EF1D  F00C         	goto	i2l1022
  5784   001828                     i2u209_40:
  5785   001828  A0F0               	btfss	240,0,c	;volatile
  5786   00182A  EF19  F00C         	goto	i2u210_41
  5787   00182E  EF1B  F00C         	goto	i2u210_40
  5788   001832                     i2u210_41:
  5789   001832  EF1D  F00C         	goto	i2l1022
  5790   001836                     i2u210_40:
  5791   001836                     
  5792                           ;MCAL_Layer/Interrupt/mcal_interrupt_manager.c: 44:         INT1_ISR();
  5793   001836  EC8B  F016         	call	_INT1_ISR	;wreg free
  5794   00183A                     i2l1022:
  5795                           
  5796                           ;MCAL_Layer/Interrupt/mcal_interrupt_manager.c: 47:     if((1==INTCON3bits.INT2IE) && (1
      +                          ==INTCON3bits.INT2IF)){
  5797   00183A  A8F0               	btfss	240,4,c	;volatile
  5798   00183C  EF22  F00C         	goto	i2u211_41
  5799   001840  EF24  F00C         	goto	i2u211_40
  5800   001844                     i2u211_41:
  5801   001844  EF2D  F00C         	goto	i2l1024
  5802   001848                     i2u211_40:
  5803   001848  A2F0               	btfss	240,1,c	;volatile
  5804   00184A  EF29  F00C         	goto	i2u212_41
  5805   00184E  EF2B  F00C         	goto	i2u212_40
  5806   001852                     i2u212_41:
  5807   001852  EF2D  F00C         	goto	i2l1024
  5808   001856                     i2u212_40:
  5809   001856                     
  5810                           ;MCAL_Layer/Interrupt/mcal_interrupt_manager.c: 48:         INT2_ISR();
  5811   001856  EC89  F016         	call	_INT2_ISR	;wreg free
  5812   00185A                     i2l1024:
  5813                           
  5814                           ;MCAL_Layer/Interrupt/mcal_interrupt_manager.c: 60:     if((1==INTCONbits.RBIE) && (1==I
      +                          NTCONbits.RBIF) && (PORTBbits.RB4==GPIO_STATE_HIGH)
  5815   00185A  A6F2               	btfss	242,3,c	;volatile
  5816   00185C  EF32  F00C         	goto	i2u213_41
  5817   001860  EF34  F00C         	goto	i2u213_40
  5818   001864                     i2u213_41:
  5819   001864  EF4F  F00C         	goto	i2l1026
  5820   001868                     i2u213_40:
  5821   001868  A0F2               	btfss	242,0,c	;volatile
  5822   00186A  EF39  F00C         	goto	i2u214_41
  5823   00186E  EF3B  F00C         	goto	i2u214_40
  5824   001872                     i2u214_41:
  5825   001872  EF4F  F00C         	goto	i2l1026
  5826   001876                     i2u214_40:
  5827   001876  A881               	btfss	129,4,c	;volatile
  5828   001878  EF40  F00C         	goto	i2u215_41
  5829   00187C  EF42  F00C         	goto	i2u215_40
  5830   001880                     i2u215_41:
  5831   001880  EF4F  F00C         	goto	i2l1026
  5832   001884                     i2u215_40:
  5833   001884  0474               	decf	_RB4_Flag^0,w,c	;volatile
  5834   001886  A4D8               	btfss	status,2,c
  5835   001888  EF48  F00C         	goto	i2u216_41
  5836   00188C  EF4A  F00C         	goto	i2u216_40
  5837   001890                     i2u216_41:
  5838   001890  EF4F  F00C         	goto	i2l1026
  5839   001894                     i2u216_40:
  5840   001894                     
  5841                           ;MCAL_Layer/Interrupt/mcal_interrupt_manager.c: 62:     {;MCAL_Layer/Interrupt/mcal_inte
      +                          rrupt_manager.c: 63:         RB4_Flag=0;
  5842   001894  0E00               	movlw	0
  5843   001896  6E74               	movwf	_RB4_Flag^0,c	;volatile
  5844   001898                     
  5845                           ;MCAL_Layer/Interrupt/mcal_interrupt_manager.c: 64:         RB4_ISR(1);
  5846   001898  0E01               	movlw	1
  5847   00189A  EC6D  F016         	call	_RB4_ISR
  5848   00189E                     i2l1026:
  5849                           
  5850                           ;MCAL_Layer/Interrupt/mcal_interrupt_manager.c: 68:     if((1==INTCONbits.RBIE) && (1==I
      +                          NTCONbits.RBIF)&& (PORTBbits.RB4==GPIO_STATE_LOW)
  5851   00189E  A6F2               	btfss	242,3,c	;volatile
  5852   0018A0  EF54  F00C         	goto	i2u217_41
  5853   0018A4  EF56  F00C         	goto	i2u217_40
  5854   0018A8                     i2u217_41:
  5855   0018A8  EF71  F00C         	goto	i2l1028
  5856   0018AC                     i2u217_40:
  5857   0018AC  A0F2               	btfss	242,0,c	;volatile
  5858   0018AE  EF5B  F00C         	goto	i2u218_41
  5859   0018B2  EF5D  F00C         	goto	i2u218_40
  5860   0018B6                     i2u218_41:
  5861   0018B6  EF71  F00C         	goto	i2l1028
  5862   0018BA                     i2u218_40:
  5863   0018BA  B881               	btfsc	129,4,c	;volatile
  5864   0018BC  EF62  F00C         	goto	i2u219_41
  5865   0018C0  EF64  F00C         	goto	i2u219_40
  5866   0018C4                     i2u219_41:
  5867   0018C4  EF71  F00C         	goto	i2l1028
  5868   0018C8                     i2u219_40:
  5869   0018C8  5074               	movf	_RB4_Flag^0,w,c	;volatile
  5870   0018CA  A4D8               	btfss	status,2,c
  5871   0018CC  EF6A  F00C         	goto	i2u220_41
  5872   0018D0  EF6C  F00C         	goto	i2u220_40
  5873   0018D4                     i2u220_41:
  5874   0018D4  EF71  F00C         	goto	i2l1028
  5875   0018D8                     i2u220_40:
  5876   0018D8                     
  5877                           ;MCAL_Layer/Interrupt/mcal_interrupt_manager.c: 70:     {;MCAL_Layer/Interrupt/mcal_inte
      +                          rrupt_manager.c: 71:         RB4_Flag=1;
  5878   0018D8  0E01               	movlw	1
  5879   0018DA  6E74               	movwf	_RB4_Flag^0,c	;volatile
  5880   0018DC                     
  5881                           ;MCAL_Layer/Interrupt/mcal_interrupt_manager.c: 72:         RB4_ISR(0);
  5882   0018DC  0E00               	movlw	0
  5883   0018DE  EC6D  F016         	call	_RB4_ISR
  5884   0018E2                     i2l1028:
  5885                           
  5886                           ;MCAL_Layer/Interrupt/mcal_interrupt_manager.c: 80:     if((1==INTCONbits.RBIE) && (1==I
      +                          NTCONbits.RBIF) && (PORTBbits.RB5==GPIO_STATE_HIGH)
  5887   0018E2  A6F2               	btfss	242,3,c	;volatile
  5888   0018E4  EF76  F00C         	goto	i2u221_41
  5889   0018E8  EF78  F00C         	goto	i2u221_40
  5890   0018EC                     i2u221_41:
  5891   0018EC  EF93  F00C         	goto	i2l1030
  5892   0018F0                     i2u221_40:
  5893   0018F0  A0F2               	btfss	242,0,c	;volatile
  5894   0018F2  EF7D  F00C         	goto	i2u222_41
  5895   0018F6  EF7F  F00C         	goto	i2u222_40
  5896   0018FA                     i2u222_41:
  5897   0018FA  EF93  F00C         	goto	i2l1030
  5898   0018FE                     i2u222_40:
  5899   0018FE  AA81               	btfss	129,5,c	;volatile
  5900   001900  EF84  F00C         	goto	i2u223_41
  5901   001904  EF86  F00C         	goto	i2u223_40
  5902   001908                     i2u223_41:
  5903   001908  EF93  F00C         	goto	i2l1030
  5904   00190C                     i2u223_40:
  5905   00190C  0473               	decf	_RB5_Flag^0,w,c	;volatile
  5906   00190E  A4D8               	btfss	status,2,c
  5907   001910  EF8C  F00C         	goto	i2u224_41
  5908   001914  EF8E  F00C         	goto	i2u224_40
  5909   001918                     i2u224_41:
  5910   001918  EF93  F00C         	goto	i2l1030
  5911   00191C                     i2u224_40:
  5912   00191C                     
  5913                           ;MCAL_Layer/Interrupt/mcal_interrupt_manager.c: 81:             &&(RB5_Flag==1)){;MCAL_L
      +                          ayer/Interrupt/mcal_interrupt_manager.c: 82:         RB5_Flag=0;
  5914   00191C  0E00               	movlw	0
  5915   00191E  6E73               	movwf	_RB5_Flag^0,c	;volatile
  5916   001920                     
  5917                           ;MCAL_Layer/Interrupt/mcal_interrupt_manager.c: 83:         RB5_ISR(1);
  5918   001920  0E01               	movlw	1
  5919   001922  EC60  F016         	call	_RB5_ISR
  5920   001926                     i2l1030:
  5921                           
  5922                           ;MCAL_Layer/Interrupt/mcal_interrupt_manager.c: 87:     if((1==INTCONbits.RBIE) && (1==I
      +                          NTCONbits.RBIF) && (PORTBbits.RB5==GPIO_STATE_LOW)
  5923   001926  A6F2               	btfss	242,3,c	;volatile
  5924   001928  EF98  F00C         	goto	i2u225_41
  5925   00192C  EF9A  F00C         	goto	i2u225_40
  5926   001930                     i2u225_41:
  5927   001930  EFB5  F00C         	goto	i2l1032
  5928   001934                     i2u225_40:
  5929   001934  A0F2               	btfss	242,0,c	;volatile
  5930   001936  EF9F  F00C         	goto	i2u226_41
  5931   00193A  EFA1  F00C         	goto	i2u226_40
  5932   00193E                     i2u226_41:
  5933   00193E  EFB5  F00C         	goto	i2l1032
  5934   001942                     i2u226_40:
  5935   001942  BA81               	btfsc	129,5,c	;volatile
  5936   001944  EFA6  F00C         	goto	i2u227_41
  5937   001948  EFA8  F00C         	goto	i2u227_40
  5938   00194C                     i2u227_41:
  5939   00194C  EFB5  F00C         	goto	i2l1032
  5940   001950                     i2u227_40:
  5941   001950  5073               	movf	_RB5_Flag^0,w,c	;volatile
  5942   001952  A4D8               	btfss	status,2,c
  5943   001954  EFAE  F00C         	goto	i2u228_41
  5944   001958  EFB0  F00C         	goto	i2u228_40
  5945   00195C                     i2u228_41:
  5946   00195C  EFB5  F00C         	goto	i2l1032
  5947   001960                     i2u228_40:
  5948   001960                     
  5949                           ;MCAL_Layer/Interrupt/mcal_interrupt_manager.c: 88:             &&(RB5_Flag==0)){;MCAL_L
      +                          ayer/Interrupt/mcal_interrupt_manager.c: 89:         RB5_Flag=1;
  5950   001960  0E01               	movlw	1
  5951   001962  6E73               	movwf	_RB5_Flag^0,c	;volatile
  5952   001964                     
  5953                           ;MCAL_Layer/Interrupt/mcal_interrupt_manager.c: 90:         RB5_ISR(0);
  5954   001964  0E00               	movlw	0
  5955   001966  EC60  F016         	call	_RB5_ISR
  5956   00196A                     i2l1032:
  5957                           
  5958                           ;MCAL_Layer/Interrupt/mcal_interrupt_manager.c: 97:     if((1==INTCONbits.RBIE) && (1==I
      +                          NTCONbits.RBIF) && (PORTBbits.RB6==GPIO_STATE_HIGH)
  5959   00196A  A6F2               	btfss	242,3,c	;volatile
  5960   00196C  EFBA  F00C         	goto	i2u229_41
  5961   001970  EFBC  F00C         	goto	i2u229_40
  5962   001974                     i2u229_41:
  5963   001974  EFD7  F00C         	goto	i2l1034
  5964   001978                     i2u229_40:
  5965   001978  A0F2               	btfss	242,0,c	;volatile
  5966   00197A  EFC1  F00C         	goto	i2u230_41
  5967   00197E  EFC3  F00C         	goto	i2u230_40
  5968   001982                     i2u230_41:
  5969   001982  EFD7  F00C         	goto	i2l1034
  5970   001986                     i2u230_40:
  5971   001986  AC81               	btfss	129,6,c	;volatile
  5972   001988  EFC8  F00C         	goto	i2u231_41
  5973   00198C  EFCA  F00C         	goto	i2u231_40
  5974   001990                     i2u231_41:
  5975   001990  EFD7  F00C         	goto	i2l1034
  5976   001994                     i2u231_40:
  5977   001994  0472               	decf	_RB6_Flag^0,w,c	;volatile
  5978   001996  A4D8               	btfss	status,2,c
  5979   001998  EFD0  F00C         	goto	i2u232_41
  5980   00199C  EFD2  F00C         	goto	i2u232_40
  5981   0019A0                     i2u232_41:
  5982   0019A0  EFD7  F00C         	goto	i2l1034
  5983   0019A4                     i2u232_40:
  5984   0019A4                     
  5985                           ;MCAL_Layer/Interrupt/mcal_interrupt_manager.c: 98:             &&(RB6_Flag==1)){;MCAL_L
      +                          ayer/Interrupt/mcal_interrupt_manager.c: 99:         RB6_Flag=0;
  5986   0019A4  0E00               	movlw	0
  5987   0019A6  6E72               	movwf	_RB6_Flag^0,c	;volatile
  5988   0019A8                     
  5989                           ;MCAL_Layer/Interrupt/mcal_interrupt_manager.c: 100:         RB6_ISR(1);
  5990   0019A8  0E01               	movlw	1
  5991   0019AA  EC53  F016         	call	_RB6_ISR
  5992   0019AE                     i2l1034:
  5993                           
  5994                           ;MCAL_Layer/Interrupt/mcal_interrupt_manager.c: 104:     if((1==INTCONbits.RBIE) && (1==
      +                          INTCONbits.RBIF) && (PORTBbits.RB6==GPIO_STATE_LOW)
  5995   0019AE  A6F2               	btfss	242,3,c	;volatile
  5996   0019B0  EFDC  F00C         	goto	i2u233_41
  5997   0019B4  EFDE  F00C         	goto	i2u233_40
  5998   0019B8                     i2u233_41:
  5999   0019B8  EFF9  F00C         	goto	i2l1036
  6000   0019BC                     i2u233_40:
  6001   0019BC  A0F2               	btfss	242,0,c	;volatile
  6002   0019BE  EFE3  F00C         	goto	i2u234_41
  6003   0019C2  EFE5  F00C         	goto	i2u234_40
  6004   0019C6                     i2u234_41:
  6005   0019C6  EFF9  F00C         	goto	i2l1036
  6006   0019CA                     i2u234_40:
  6007   0019CA  BC81               	btfsc	129,6,c	;volatile
  6008   0019CC  EFEA  F00C         	goto	i2u235_41
  6009   0019D0  EFEC  F00C         	goto	i2u235_40
  6010   0019D4                     i2u235_41:
  6011   0019D4  EFF9  F00C         	goto	i2l1036
  6012   0019D8                     i2u235_40:
  6013   0019D8  5072               	movf	_RB6_Flag^0,w,c	;volatile
  6014   0019DA  A4D8               	btfss	status,2,c
  6015   0019DC  EFF2  F00C         	goto	i2u236_41
  6016   0019E0  EFF4  F00C         	goto	i2u236_40
  6017   0019E4                     i2u236_41:
  6018   0019E4  EFF9  F00C         	goto	i2l1036
  6019   0019E8                     i2u236_40:
  6020   0019E8                     
  6021                           ;MCAL_Layer/Interrupt/mcal_interrupt_manager.c: 105:             &&(RB6_Flag==0)){;MCAL_
      +                          Layer/Interrupt/mcal_interrupt_manager.c: 106:         RB6_Flag=1;
  6022   0019E8  0E01               	movlw	1
  6023   0019EA  6E72               	movwf	_RB6_Flag^0,c	;volatile
  6024   0019EC                     
  6025                           ;MCAL_Layer/Interrupt/mcal_interrupt_manager.c: 107:         RB6_ISR(0);
  6026   0019EC  0E00               	movlw	0
  6027   0019EE  EC53  F016         	call	_RB6_ISR
  6028   0019F2                     i2l1036:
  6029                           
  6030                           ;MCAL_Layer/Interrupt/mcal_interrupt_manager.c: 114:     if((1==INTCONbits.RBIE) && (1==
      +                          INTCONbits.RBIF) && (PORTBbits.RB7==GPIO_STATE_HIGH)
  6031   0019F2  A6F2               	btfss	242,3,c	;volatile
  6032   0019F4  EFFE  F00C         	goto	i2u237_41
  6033   0019F8  EF00  F00D         	goto	i2u237_40
  6034   0019FC                     i2u237_41:
  6035   0019FC  EF1B  F00D         	goto	i2l1038
  6036   001A00                     i2u237_40:
  6037   001A00  A0F2               	btfss	242,0,c	;volatile
  6038   001A02  EF05  F00D         	goto	i2u238_41
  6039   001A06  EF07  F00D         	goto	i2u238_40
  6040   001A0A                     i2u238_41:
  6041   001A0A  EF1B  F00D         	goto	i2l1038
  6042   001A0E                     i2u238_40:
  6043   001A0E  AE81               	btfss	129,7,c	;volatile
  6044   001A10  EF0C  F00D         	goto	i2u239_41
  6045   001A14  EF0E  F00D         	goto	i2u239_40
  6046   001A18                     i2u239_41:
  6047   001A18  EF1B  F00D         	goto	i2l1038
  6048   001A1C                     i2u239_40:
  6049   001A1C  0471               	decf	_RB7_Flag^0,w,c	;volatile
  6050   001A1E  A4D8               	btfss	status,2,c
  6051   001A20  EF14  F00D         	goto	i2u240_41
  6052   001A24  EF16  F00D         	goto	i2u240_40
  6053   001A28                     i2u240_41:
  6054   001A28  EF1B  F00D         	goto	i2l1038
  6055   001A2C                     i2u240_40:
  6056   001A2C                     
  6057                           ;MCAL_Layer/Interrupt/mcal_interrupt_manager.c: 115:             &&(RB7_Flag==1)){;MCAL_
      +                          Layer/Interrupt/mcal_interrupt_manager.c: 116:         RB7_Flag=0;
  6058   001A2C  0E00               	movlw	0
  6059   001A2E  6E71               	movwf	_RB7_Flag^0,c	;volatile
  6060   001A30                     
  6061                           ;MCAL_Layer/Interrupt/mcal_interrupt_manager.c: 117:         RB7_ISR(1);
  6062   001A30  0E01               	movlw	1
  6063   001A32  EC46  F016         	call	_RB7_ISR
  6064   001A36                     i2l1038:
  6065                           
  6066                           ;MCAL_Layer/Interrupt/mcal_interrupt_manager.c: 121:     if((1==INTCONbits.RBIE) && (1==
      +                          INTCONbits.RBIF) && (PORTBbits.RB7==GPIO_STATE_LOW)
  6067   001A36  A6F2               	btfss	242,3,c	;volatile
  6068   001A38  EF20  F00D         	goto	i2u241_41
  6069   001A3C  EF22  F00D         	goto	i2u241_40
  6070   001A40                     i2u241_41:
  6071   001A40  EF3D  F00D         	goto	i2l1041
  6072   001A44                     i2u241_40:
  6073   001A44  A0F2               	btfss	242,0,c	;volatile
  6074   001A46  EF27  F00D         	goto	i2u242_41
  6075   001A4A  EF29  F00D         	goto	i2u242_40
  6076   001A4E                     i2u242_41:
  6077   001A4E  EF3D  F00D         	goto	i2l1041
  6078   001A52                     i2u242_40:
  6079   001A52  BE81               	btfsc	129,7,c	;volatile
  6080   001A54  EF2E  F00D         	goto	i2u243_41
  6081   001A58  EF30  F00D         	goto	i2u243_40
  6082   001A5C                     i2u243_41:
  6083   001A5C  EF3D  F00D         	goto	i2l1041
  6084   001A60                     i2u243_40:
  6085   001A60  5071               	movf	_RB7_Flag^0,w,c	;volatile
  6086   001A62  A4D8               	btfss	status,2,c
  6087   001A64  EF36  F00D         	goto	i2u244_41
  6088   001A68  EF38  F00D         	goto	i2u244_40
  6089   001A6C                     i2u244_41:
  6090   001A6C  EF3D  F00D         	goto	i2l1041
  6091   001A70                     i2u244_40:
  6092   001A70                     
  6093                           ;MCAL_Layer/Interrupt/mcal_interrupt_manager.c: 122:             &&(RB7_Flag==0)){;MCAL_
      +                          Layer/Interrupt/mcal_interrupt_manager.c: 123:         RB7_Flag=1;
  6094   001A70  0E01               	movlw	1
  6095   001A72  6E71               	movwf	_RB7_Flag^0,c	;volatile
  6096   001A74                     
  6097                           ;MCAL_Layer/Interrupt/mcal_interrupt_manager.c: 124:         RB7_ISR(0);
  6098   001A74  0E00               	movlw	0
  6099   001A76  EC46  F016         	call	_RB7_ISR
  6100   001A7A                     i2l1041:
  6101   001A7A  927C               	bcf	int$flags,1,c	;clear compiler interrupt flag (level 2)
  6102   001A7C  0011               	retfie		f
  6103   001A7E                     __end_of_General_Interrupt_Manager:
  6104                           	callstack 0
  6105                           
  6106 ;; *************** function _RB7_ISR *****************
  6107 ;; Defined at:
  6108 ;;		line 692 in file "MCAL_Layer/Interrupt/mcal_external_interrupt.c"
  6109 ;; Parameters:    Size  Location     Type
  6110 ;;  state           1    wreg     unsigned char 
  6111 ;; Auto vars:     Size  Location     Type
  6112 ;;  state           1    0[COMRAM] unsigned char 
  6113 ;; Return value:  Size  Location     Type
  6114 ;;                  1    wreg      void 
  6115 ;; Registers used:
  6116 ;;		wreg, status,2, status,0
  6117 ;; Tracked objects:
  6118 ;;		On entry : 0/0
  6119 ;;		On exit  : 0/0
  6120 ;;		Unchanged: 0/0
  6121 ;; Data sizes:     COMRAM   BANK0   BANK1   BANK2   BANK3   BANK4   BANK5   BANK6   BANK7   BANK8   BANK9  BANK10  BANK1
      +1  BANK12  BANK13  BANK14  BANK15
  6122 ;;      Params:         0       0       0       0       0       0       0       0       0       0       0       0       
      +0       0       0       0       0
  6123 ;;      Locals:         1       0       0       0       0       0       0       0       0       0       0       0       
      +0       0       0       0       0
  6124 ;;      Temps:          0       0       0       0       0       0       0       0       0       0       0       0       
      +0       0       0       0       0
  6125 ;;      Totals:         1       0       0       0       0       0       0       0       0       0       0       0       
      +0       0       0       0       0
  6126 ;;Total ram usage:        1 bytes
  6127 ;; Hardware stack levels used: 1
  6128 ;; This function calls:
  6129 ;;		Nothing
  6130 ;; This function is called by:
  6131 ;;		_General_Interrupt_Manager
  6132 ;; This function uses a non-reentrant model
  6133 ;;
  6134                           
  6135                           	psect	text36
  6136   002C8C                     __ptext36:
  6137                           	callstack 0
  6138   002C8C                     _RB7_ISR:
  6139                           	callstack 23
  6140                           
  6141                           ;incstack = 0
  6142                           ;RB7_ISR@state stored from wreg
  6143   002C8C  6E01               	movwf	RB7_ISR@state^0,c
  6144   002C8E                     
  6145                           ;MCAL_Layer/Interrupt/mcal_external_interrupt.c: 693:      (INTCONbits.RBIF=0);
  6146   002C8E  90F2               	bcf	242,0,c	;volatile
  6147   002C90                     
  6148                           ;MCAL_Layer/Interrupt/mcal_external_interrupt.c: 694:     if(state==0){
  6149   002C90  5001               	movf	RB7_ISR@state^0,w,c
  6150   002C92  A4D8               	btfss	status,2,c
  6151   002C94  EF4E  F016         	goto	i2u72_41
  6152   002C98  EF50  F016         	goto	i2u72_40
  6153   002C9C                     i2u72_41:
  6154   002C9C  EF52  F016         	goto	i2l2687
  6155   002CA0                     i2u72_40:
  6156   002CA0  EF52  F016         	goto	i2l950
  6157   002CA4                     i2l2687:
  6158   002CA4                     i2l950:
  6159   002CA4  0012               	return		;funcret
  6160   002CA6                     __end_of_RB7_ISR:
  6161                           	callstack 0
  6162                           
  6163 ;; *************** function _RB6_ISR *****************
  6164 ;; Defined at:
  6165 ;;		line 670 in file "MCAL_Layer/Interrupt/mcal_external_interrupt.c"
  6166 ;; Parameters:    Size  Location     Type
  6167 ;;  state           1    wreg     unsigned char 
  6168 ;; Auto vars:     Size  Location     Type
  6169 ;;  state           1    0[COMRAM] unsigned char 
  6170 ;; Return value:  Size  Location     Type
  6171 ;;                  1    wreg      void 
  6172 ;; Registers used:
  6173 ;;		wreg, status,2, status,0
  6174 ;; Tracked objects:
  6175 ;;		On entry : 0/0
  6176 ;;		On exit  : 0/0
  6177 ;;		Unchanged: 0/0
  6178 ;; Data sizes:     COMRAM   BANK0   BANK1   BANK2   BANK3   BANK4   BANK5   BANK6   BANK7   BANK8   BANK9  BANK10  BANK1
      +1  BANK12  BANK13  BANK14  BANK15
  6179 ;;      Params:         0       0       0       0       0       0       0       0       0       0       0       0       
      +0       0       0       0       0
  6180 ;;      Locals:         1       0       0       0       0       0       0       0       0       0       0       0       
      +0       0       0       0       0
  6181 ;;      Temps:          0       0       0       0       0       0       0       0       0       0       0       0       
      +0       0       0       0       0
  6182 ;;      Totals:         1       0       0       0       0       0       0       0       0       0       0       0       
      +0       0       0       0       0
  6183 ;;Total ram usage:        1 bytes
  6184 ;; Hardware stack levels used: 1
  6185 ;; This function calls:
  6186 ;;		Nothing
  6187 ;; This function is called by:
  6188 ;;		_General_Interrupt_Manager
  6189 ;; This function uses a non-reentrant model
  6190 ;;
  6191                           
  6192                           	psect	text37
  6193   002CA6                     __ptext37:
  6194                           	callstack 0
  6195   002CA6                     _RB6_ISR:
  6196                           	callstack 23
  6197                           
  6198                           ;incstack = 0
  6199                           ;RB6_ISR@state stored from wreg
  6200   002CA6  6E01               	movwf	RB6_ISR@state^0,c
  6201   002CA8                     
  6202                           ;MCAL_Layer/Interrupt/mcal_external_interrupt.c: 671:     (INTCONbits.RBIF=0);
  6203   002CA8  90F2               	bcf	242,0,c	;volatile
  6204   002CAA                     
  6205                           ;MCAL_Layer/Interrupt/mcal_external_interrupt.c: 672:     if(state==0){
  6206   002CAA  5001               	movf	RB6_ISR@state^0,w,c
  6207   002CAC  A4D8               	btfss	status,2,c
  6208   002CAE  EF5B  F016         	goto	i2u71_41
  6209   002CB2  EF5D  F016         	goto	i2u71_40
  6210   002CB6                     i2u71_41:
  6211   002CB6  EF5F  F016         	goto	i2l2673
  6212   002CBA                     i2u71_40:
  6213   002CBA  EF5F  F016         	goto	i2l940
  6214   002CBE                     i2l2673:
  6215   002CBE                     i2l940:
  6216   002CBE  0012               	return		;funcret
  6217   002CC0                     __end_of_RB6_ISR:
  6218                           	callstack 0
  6219                           
  6220 ;; *************** function _RB5_ISR *****************
  6221 ;; Defined at:
  6222 ;;		line 648 in file "MCAL_Layer/Interrupt/mcal_external_interrupt.c"
  6223 ;; Parameters:    Size  Location     Type
  6224 ;;  state           1    wreg     unsigned char 
  6225 ;; Auto vars:     Size  Location     Type
  6226 ;;  state           1    0[COMRAM] unsigned char 
  6227 ;; Return value:  Size  Location     Type
  6228 ;;                  1    wreg      void 
  6229 ;; Registers used:
  6230 ;;		wreg, status,2, status,0
  6231 ;; Tracked objects:
  6232 ;;		On entry : 0/0
  6233 ;;		On exit  : 0/0
  6234 ;;		Unchanged: 0/0
  6235 ;; Data sizes:     COMRAM   BANK0   BANK1   BANK2   BANK3   BANK4   BANK5   BANK6   BANK7   BANK8   BANK9  BANK10  BANK1
      +1  BANK12  BANK13  BANK14  BANK15
  6236 ;;      Params:         0       0       0       0       0       0       0       0       0       0       0       0       
      +0       0       0       0       0
  6237 ;;      Locals:         1       0       0       0       0       0       0       0       0       0       0       0       
      +0       0       0       0       0
  6238 ;;      Temps:          0       0       0       0       0       0       0       0       0       0       0       0       
      +0       0       0       0       0
  6239 ;;      Totals:         1       0       0       0       0       0       0       0       0       0       0       0       
      +0       0       0       0       0
  6240 ;;Total ram usage:        1 bytes
  6241 ;; Hardware stack levels used: 1
  6242 ;; This function calls:
  6243 ;;		Nothing
  6244 ;; This function is called by:
  6245 ;;		_General_Interrupt_Manager
  6246 ;; This function uses a non-reentrant model
  6247 ;;
  6248                           
  6249                           	psect	text38
  6250   002CC0                     __ptext38:
  6251                           	callstack 0
  6252   002CC0                     _RB5_ISR:
  6253                           	callstack 23
  6254                           
  6255                           ;incstack = 0
  6256                           ;RB5_ISR@state stored from wreg
  6257   002CC0  6E01               	movwf	RB5_ISR@state^0,c
  6258   002CC2                     
  6259                           ;MCAL_Layer/Interrupt/mcal_external_interrupt.c: 649:     (INTCONbits.RBIF=0);
  6260   002CC2  90F2               	bcf	242,0,c	;volatile
  6261   002CC4                     
  6262                           ;MCAL_Layer/Interrupt/mcal_external_interrupt.c: 650:     if(state==0){
  6263   002CC4  5001               	movf	RB5_ISR@state^0,w,c
  6264   002CC6  A4D8               	btfss	status,2,c
  6265   002CC8  EF68  F016         	goto	i2u70_41
  6266   002CCC  EF6A  F016         	goto	i2u70_40
  6267   002CD0                     i2u70_41:
  6268   002CD0  EF6C  F016         	goto	i2l2659
  6269   002CD4                     i2u70_40:
  6270   002CD4  EF6C  F016         	goto	i2l930
  6271   002CD8                     i2l2659:
  6272   002CD8                     i2l930:
  6273   002CD8  0012               	return		;funcret
  6274   002CDA                     __end_of_RB5_ISR:
  6275                           	callstack 0
  6276                           
  6277 ;; *************** function _RB4_ISR *****************
  6278 ;; Defined at:
  6279 ;;		line 625 in file "MCAL_Layer/Interrupt/mcal_external_interrupt.c"
  6280 ;; Parameters:    Size  Location     Type
  6281 ;;  state           1    wreg     unsigned char 
  6282 ;; Auto vars:     Size  Location     Type
  6283 ;;  state           1    0[COMRAM] unsigned char 
  6284 ;; Return value:  Size  Location     Type
  6285 ;;                  1    wreg      void 
  6286 ;; Registers used:
  6287 ;;		wreg, status,2, status,0
  6288 ;; Tracked objects:
  6289 ;;		On entry : 0/0
  6290 ;;		On exit  : 0/0
  6291 ;;		Unchanged: 0/0
  6292 ;; Data sizes:     COMRAM   BANK0   BANK1   BANK2   BANK3   BANK4   BANK5   BANK6   BANK7   BANK8   BANK9  BANK10  BANK1
      +1  BANK12  BANK13  BANK14  BANK15
  6293 ;;      Params:         0       0       0       0       0       0       0       0       0       0       0       0       
      +0       0       0       0       0
  6294 ;;      Locals:         1       0       0       0       0       0       0       0       0       0       0       0       
      +0       0       0       0       0
  6295 ;;      Temps:          0       0       0       0       0       0       0       0       0       0       0       0       
      +0       0       0       0       0
  6296 ;;      Totals:         1       0       0       0       0       0       0       0       0       0       0       0       
      +0       0       0       0       0
  6297 ;;Total ram usage:        1 bytes
  6298 ;; Hardware stack levels used: 1
  6299 ;; This function calls:
  6300 ;;		Nothing
  6301 ;; This function is called by:
  6302 ;;		_General_Interrupt_Manager
  6303 ;; This function uses a non-reentrant model
  6304 ;;
  6305                           
  6306                           	psect	text39
  6307   002CDA                     __ptext39:
  6308                           	callstack 0
  6309   002CDA                     _RB4_ISR:
  6310                           	callstack 23
  6311                           
  6312                           ;incstack = 0
  6313                           ;RB4_ISR@state stored from wreg
  6314   002CDA  6E01               	movwf	RB4_ISR@state^0,c
  6315   002CDC                     
  6316                           ;MCAL_Layer/Interrupt/mcal_external_interrupt.c: 626:     (INTCONbits.RBIF=0);
  6317   002CDC  90F2               	bcf	242,0,c	;volatile
  6318   002CDE                     
  6319                           ;MCAL_Layer/Interrupt/mcal_external_interrupt.c: 627:     if(state==0){
  6320   002CDE  5001               	movf	RB4_ISR@state^0,w,c
  6321   002CE0  A4D8               	btfss	status,2,c
  6322   002CE2  EF75  F016         	goto	i2u69_41
  6323   002CE6  EF77  F016         	goto	i2u69_40
  6324   002CEA                     i2u69_41:
  6325   002CEA  EF79  F016         	goto	i2l2645
  6326   002CEE                     i2u69_40:
  6327   002CEE  EF79  F016         	goto	i2l920
  6328   002CF2                     i2l2645:
  6329   002CF2                     i2l920:
  6330   002CF2  0012               	return		;funcret
  6331   002CF4                     __end_of_RB4_ISR:
  6332                           	callstack 0
  6333                           
  6334 ;; *************** function _INT2_ISR *****************
  6335 ;; Defined at:
  6336 ;;		line 609 in file "MCAL_Layer/Interrupt/mcal_external_interrupt.c"
  6337 ;; Parameters:    Size  Location     Type
  6338 ;;		None
  6339 ;; Auto vars:     Size  Location     Type
  6340 ;;		None
  6341 ;; Return value:  Size  Location     Type
  6342 ;;                  1    wreg      void 
  6343 ;; Registers used:
  6344 ;;		None
  6345 ;; Tracked objects:
  6346 ;;		On entry : 0/0
  6347 ;;		On exit  : 0/0
  6348 ;;		Unchanged: 0/0
  6349 ;; Data sizes:     COMRAM   BANK0   BANK1   BANK2   BANK3   BANK4   BANK5   BANK6   BANK7   BANK8   BANK9  BANK10  BANK1
      +1  BANK12  BANK13  BANK14  BANK15
  6350 ;;      Params:         0       0       0       0       0       0       0       0       0       0       0       0       
      +0       0       0       0       0
  6351 ;;      Locals:         0       0       0       0       0       0       0       0       0       0       0       0       
      +0       0       0       0       0
  6352 ;;      Temps:          0       0       0       0       0       0       0       0       0       0       0       0       
      +0       0       0       0       0
  6353 ;;      Totals:         0       0       0       0       0       0       0       0       0       0       0       0       
      +0       0       0       0       0
  6354 ;;Total ram usage:        0 bytes
  6355 ;; Hardware stack levels used: 1
  6356 ;; This function calls:
  6357 ;;		Nothing
  6358 ;; This function is called by:
  6359 ;;		_General_Interrupt_Manager
  6360 ;; This function uses a non-reentrant model
  6361 ;;
  6362                           
  6363                           	psect	text40
  6364   002D12                     __ptext40:
  6365                           	callstack 0
  6366   002D12                     _INT2_ISR:
  6367                           	callstack 23
  6368   002D12                     
  6369                           ;MCAL_Layer/Interrupt/mcal_external_interrupt.c: 610:     (INTCON3bits.INT2IF=0);
  6370   002D12  92F0               	bcf	240,1,c	;volatile
  6371   002D14  0012               	return		;funcret
  6372   002D16                     __end_of_INT2_ISR:
  6373                           	callstack 0
  6374                           
  6375 ;; *************** function _INT1_ISR *****************
  6376 ;; Defined at:
  6377 ;;		line 599 in file "MCAL_Layer/Interrupt/mcal_external_interrupt.c"
  6378 ;; Parameters:    Size  Location     Type
  6379 ;;		None
  6380 ;; Auto vars:     Size  Location     Type
  6381 ;;		None
  6382 ;; Return value:  Size  Location     Type
  6383 ;;                  1    wreg      void 
  6384 ;; Registers used:
  6385 ;;		None
  6386 ;; Tracked objects:
  6387 ;;		On entry : 0/0
  6388 ;;		On exit  : 0/0
  6389 ;;		Unchanged: 0/0
  6390 ;; Data sizes:     COMRAM   BANK0   BANK1   BANK2   BANK3   BANK4   BANK5   BANK6   BANK7   BANK8   BANK9  BANK10  BANK1
      +1  BANK12  BANK13  BANK14  BANK15
  6391 ;;      Params:         0       0       0       0       0       0       0       0       0       0       0       0       
      +0       0       0       0       0
  6392 ;;      Locals:         0       0       0       0       0       0       0       0       0       0       0       0       
      +0       0       0       0       0
  6393 ;;      Temps:          0       0       0       0       0       0       0       0       0       0       0       0       
      +0       0       0       0       0
  6394 ;;      Totals:         0       0       0       0       0       0       0       0       0       0       0       0       
      +0       0       0       0       0
  6395 ;;Total ram usage:        0 bytes
  6396 ;; Hardware stack levels used: 1
  6397 ;; This function calls:
  6398 ;;		Nothing
  6399 ;; This function is called by:
  6400 ;;		_General_Interrupt_Manager
  6401 ;; This function uses a non-reentrant model
  6402 ;;
  6403                           
  6404                           	psect	text41
  6405   002D16                     __ptext41:
  6406                           	callstack 0
  6407   002D16                     _INT1_ISR:
  6408                           	callstack 23
  6409   002D16                     
  6410                           ;MCAL_Layer/Interrupt/mcal_external_interrupt.c: 600:     (INTCON3bits.INT1IF=0);
  6411   002D16  90F0               	bcf	240,0,c	;volatile
  6412   002D18  0012               	return		;funcret
  6413   002D1A                     __end_of_INT1_ISR:
  6414                           	callstack 0
  6415                           
  6416 ;; *************** function _INT0_ISR *****************
  6417 ;; Defined at:
  6418 ;;		line 589 in file "MCAL_Layer/Interrupt/mcal_external_interrupt.c"
  6419 ;; Parameters:    Size  Location     Type
  6420 ;;		None
  6421 ;; Auto vars:     Size  Location     Type
  6422 ;;		None
  6423 ;; Return value:  Size  Location     Type
  6424 ;;                  1    wreg      void 
  6425 ;; Registers used:
  6426 ;;		None
  6427 ;; Tracked objects:
  6428 ;;		On entry : 0/0
  6429 ;;		On exit  : 0/0
  6430 ;;		Unchanged: 0/0
  6431 ;; Data sizes:     COMRAM   BANK0   BANK1   BANK2   BANK3   BANK4   BANK5   BANK6   BANK7   BANK8   BANK9  BANK10  BANK1
      +1  BANK12  BANK13  BANK14  BANK15
  6432 ;;      Params:         0       0       0       0       0       0       0       0       0       0       0       0       
      +0       0       0       0       0
  6433 ;;      Locals:         0       0       0       0       0       0       0       0       0       0       0       0       
      +0       0       0       0       0
  6434 ;;      Temps:          0       0       0       0       0       0       0       0       0       0       0       0       
      +0       0       0       0       0
  6435 ;;      Totals:         0       0       0       0       0       0       0       0       0       0       0       0       
      +0       0       0       0       0
  6436 ;;Total ram usage:        0 bytes
  6437 ;; Hardware stack levels used: 1
  6438 ;; This function calls:
  6439 ;;		Nothing
  6440 ;; This function is called by:
  6441 ;;		_General_Interrupt_Manager
  6442 ;; This function uses a non-reentrant model
  6443 ;;
  6444                           
  6445                           	psect	text42
  6446   002D1A                     __ptext42:
  6447                           	callstack 0
  6448   002D1A                     _INT0_ISR:
  6449                           	callstack 23
  6450   002D1A                     
  6451                           ;MCAL_Layer/Interrupt/mcal_external_interrupt.c: 590:     (INTCONbits.INT0IF=0);
  6452   002D1A  92F2               	bcf	242,1,c	;volatile
  6453   002D1C  0012               	return		;funcret
  6454   002D1E                     __end_of_INT0_ISR:
  6455                           	callstack 0
  6456                           
  6457                           	psect	rparam
  6458   000000                     
  6459                           	psect	temp
  6460   00007C                     btemp:
  6461                           	callstack 0
  6462   00007C                     	ds	1
  6463   000000                     int$flags	set	btemp
  6464   000000                     wtemp8	set	btemp+1
  6465   000000                     ttemp5	set	btemp+1
  6466   000000                     ttemp6	set	btemp+4
  6467   000000                     ttemp7	set	btemp+8
  6468                           
  6469                           	psect	idloc
  6470                           
  6471                           ;Config register IDLOC0 @ 0x200000
  6472                           ;	unspecified, using default values
  6473   200000                     	org	2097152
  6474   200000  FF                 	db	255
  6475                           
  6476                           ;Config register IDLOC1 @ 0x200001
  6477                           ;	unspecified, using default values
  6478   200001                     	org	2097153
  6479   200001  FF                 	db	255
  6480                           
  6481                           ;Config register IDLOC2 @ 0x200002
  6482                           ;	unspecified, using default values
  6483   200002                     	org	2097154
  6484   200002  FF                 	db	255
  6485                           
  6486                           ;Config register IDLOC3 @ 0x200003
  6487                           ;	unspecified, using default values
  6488   200003                     	org	2097155
  6489   200003  FF                 	db	255
  6490                           
  6491                           ;Config register IDLOC4 @ 0x200004
  6492                           ;	unspecified, using default values
  6493   200004                     	org	2097156
  6494   200004  FF                 	db	255
  6495                           
  6496                           ;Config register IDLOC5 @ 0x200005
  6497                           ;	unspecified, using default values
  6498   200005                     	org	2097157
  6499   200005  FF                 	db	255
  6500                           
  6501                           ;Config register IDLOC6 @ 0x200006
  6502                           ;	unspecified, using default values
  6503   200006                     	org	2097158
  6504   200006  FF                 	db	255
  6505                           
  6506                           ;Config register IDLOC7 @ 0x200007
  6507                           ;	unspecified, using default values
  6508   200007                     	org	2097159
  6509   200007  FF                 	db	255
  6510                           
  6511                           	psect	config
  6512                           
  6513                           ; Padding undefined space
  6514   300000                     	org	3145728
  6515   300000  FF                 	db	255
  6516                           
  6517                           ;Config register CONFIG1H @ 0x300001
  6518                           ;	Oscillator Selection bits
  6519                           ;	OSC = HS, HS oscillator
  6520                           ;	Fail-Safe Clock Monitor Enable bit
  6521                           ;	FCMEN = OFF, Fail-Safe Clock Monitor disabled
  6522                           ;	Internal/External Oscillator Switchover bit
  6523                           ;	IESO = OFF, Oscillator Switchover mode disabled
  6524   300001                     	org	3145729
  6525   300001  02                 	db	2
  6526                           
  6527                           ;Config register CONFIG2L @ 0x300002
  6528                           ;	Power-up Timer Enable bit
  6529                           ;	PWRT = OFF, PWRT disabled
  6530                           ;	Brown-out Reset Enable bits
  6531                           ;	BOREN = OFF, Brown-out Reset disabled in hardware and software
  6532                           ;	Brown Out Reset Voltage bits
  6533                           ;	BORV = 1, 
  6534   300002                     	org	3145730
  6535   300002  09                 	db	9
  6536                           
  6537                           ;Config register CONFIG2H @ 0x300003
  6538                           ;	Watchdog Timer Enable bit
  6539                           ;	WDT = OFF, WDT disabled (control is placed on the SWDTEN bit)
  6540                           ;	Watchdog Timer Postscale Select bits
  6541                           ;	WDTPS = 32768, 1:32768
  6542   300003                     	org	3145731
  6543   300003  1E                 	db	30
  6544                           
  6545                           ; Padding undefined space
  6546   300004                     	org	3145732
  6547   300004  FF                 	db	255
  6548                           
  6549                           ;Config register CONFIG3H @ 0x300005
  6550                           ;	CCP2 MUX bit
  6551                           ;	CCP2MX = PORTC, CCP2 input/output is multiplexed with RC1
  6552                           ;	PORTB A/D Enable bit
  6553                           ;	PBADEN = OFF, PORTB<4:0> pins are configured as digital I/O on Reset
  6554                           ;	Low-Power Timer1 Oscillator Enable bit
  6555                           ;	LPT1OSC = OFF, Timer1 configured for higher power operation
  6556                           ;	MCLR Pin Enable bit
  6557                           ;	MCLRE = ON, MCLR pin enabled; RE3 input pin disabled
  6558   300005                     	org	3145733
  6559   300005  81                 	db	129
  6560                           
  6561                           ;Config register CONFIG4L @ 0x300006
  6562                           ;	Stack Full/Underflow Reset Enable bit
  6563                           ;	STVREN = ON, Stack full/underflow will cause Reset
  6564                           ;	Single-Supply ICSP Enable bit
  6565                           ;	LVP = OFF, Single-Supply ICSP disabled
  6566                           ;	Extended Instruction Set Enable bit
  6567                           ;	XINST = OFF, Instruction set extension and Indexed Addressing mode disabled (Legacy mo
      +                          de)
  6568                           ;	Background Debugger Enable bit
  6569                           ;	DEBUG = 0x1, unprogrammed default
  6570   300006                     	org	3145734
  6571   300006  81                 	db	129
  6572                           
  6573                           ; Padding undefined space
  6574   300007                     	org	3145735
  6575   300007  FF                 	db	255
  6576                           
  6577                           ;Config register CONFIG5L @ 0x300008
  6578                           ;	Code Protection bit
  6579                           ;	CP0 = OFF, Block 0 (000800-003FFFh) not code-protected
  6580                           ;	Code Protection bit
  6581                           ;	CP1 = OFF, Block 1 (004000-007FFFh) not code-protected
  6582                           ;	Code Protection bit
  6583                           ;	CP2 = OFF, Block 2 (008000-00BFFFh) not code-protected
  6584                           ;	Code Protection bit
  6585                           ;	CP3 = OFF, Block 3 (00C000-00FFFFh) not code-protected
  6586   300008                     	org	3145736
  6587   300008  0F                 	db	15
  6588                           
  6589                           ;Config register CONFIG5H @ 0x300009
  6590                           ;	Boot Block Code Protection bit
  6591                           ;	CPB = OFF, Boot block (000000-0007FFh) not code-protected
  6592                           ;	Data EEPROM Code Protection bit
  6593                           ;	CPD = OFF, Data EEPROM not code-protected
  6594   300009                     	org	3145737
  6595   300009  C0                 	db	192
  6596                           
  6597                           ;Config register CONFIG6L @ 0x30000A
  6598                           ;	Write Protection bit
  6599                           ;	WRT0 = OFF, Block 0 (000800-003FFFh) not write-protected
  6600                           ;	Write Protection bit
  6601                           ;	WRT1 = OFF, Block 1 (004000-007FFFh) not write-protected
  6602                           ;	Write Protection bit
  6603                           ;	WRT2 = OFF, Block 2 (008000-00BFFFh) not write-protected
  6604                           ;	Write Protection bit
  6605                           ;	WRT3 = OFF, Block 3 (00C000-00FFFFh) not write-protected
  6606   30000A                     	org	3145738
  6607   30000A  0F                 	db	15
  6608                           
  6609                           ;Config register CONFIG6H @ 0x30000B
  6610                           ;	Configuration Register Write Protection bit
  6611                           ;	WRTC = OFF, Configuration registers (300000-3000FFh) not write-protected
  6612                           ;	Boot Block Write Protection bit
  6613                           ;	WRTB = OFF, Boot Block (000000-0007FFh) not write-protected
  6614                           ;	Data EEPROM Write Protection bit
  6615                           ;	WRTD = OFF, Data EEPROM not write-protected
  6616   30000B                     	org	3145739
  6617   30000B  E0                 	db	224
  6618                           
  6619                           ;Config register CONFIG7L @ 0x30000C
  6620                           ;	Table Read Protection bit
  6621                           ;	EBTR0 = OFF, Block 0 (000800-003FFFh) not protected from table reads executed in other
      +                           blocks
  6622                           ;	Table Read Protection bit
  6623                           ;	EBTR1 = OFF, Block 1 (004000-007FFFh) not protected from table reads executed in other
      +                           blocks
  6624                           ;	Table Read Protection bit
  6625                           ;	EBTR2 = OFF, Block 2 (008000-00BFFFh) not protected from table reads executed in other
      +                           blocks
  6626                           ;	Table Read Protection bit
  6627                           ;	EBTR3 = OFF, Block 3 (00C000-00FFFFh) not protected from table reads executed in other
      +                           blocks
  6628   30000C                     	org	3145740
  6629   30000C  0F                 	db	15
  6630                           
  6631                           ;Config register CONFIG7H @ 0x30000D
  6632                           ;	Boot Block Table Read Protection bit
  6633                           ;	EBTRB = OFF, Boot Block (000000-0007FFh) not protected from table reads executed in ot
      +                          her blocks
  6634   30000D                     	org	3145741
  6635   30000D  40                 	db	64
  6636                           tosu	equ	0xFFF
  6637                           tosh	equ	0xFFE
  6638                           tosl	equ	0xFFD
  6639                           stkptr	equ	0xFFC
  6640                           pclatu	equ	0xFFB
  6641                           pclath	equ	0xFFA
  6642                           pcl	equ	0xFF9
  6643                           tblptru	equ	0xFF8
  6644                           tblptrh	equ	0xFF7
  6645                           tblptrl	equ	0xFF6
  6646                           tablat	equ	0xFF5
  6647                           prodh	equ	0xFF4
  6648                           prodl	equ	0xFF3
  6649                           indf0	equ	0xFEF
  6650                           postinc0	equ	0xFEE
  6651                           postdec0	equ	0xFED
  6652                           preinc0	equ	0xFEC
  6653                           plusw0	equ	0xFEB
  6654                           fsr0h	equ	0xFEA
  6655                           fsr0l	equ	0xFE9
  6656                           wreg	equ	0xFE8
  6657                           indf1	equ	0xFE7
  6658                           postinc1	equ	0xFE6
  6659                           postdec1	equ	0xFE5
  6660                           preinc1	equ	0xFE4
  6661                           plusw1	equ	0xFE3
  6662                           fsr1h	equ	0xFE2
  6663                           fsr1l	equ	0xFE1
  6664                           bsr	equ	0xFE0
  6665                           indf2	equ	0xFDF
  6666                           postinc2	equ	0xFDE
  6667                           postdec2	equ	0xFDD
  6668                           preinc2	equ	0xFDC
  6669                           plusw2	equ	0xFDB
  6670                           fsr2h	equ	0xFDA
  6671                           fsr2l	equ	0xFD9
  6672                           status	equ	0xFD8

Data Sizes:
    Strings     33
    Constant    16
    Data        48
    BSS         76
    Persistent  3
    Stack       0

Auto Spaces:
    Space          Size  Autos    Used
    COMRAM          126     75     123
    BANK0           128      0      79
    BANK1           256      0       0
    BANK2           256      0       0
    BANK3           256      0       0
    BANK4           256      0       0
    BANK5           256      0       0
    BANK6           256      0       0
    BANK7           256      0       0
    BANK8           256      0       0
    BANK9           256      0       0
    BANK10          256      0       0
    BANK11          256      0       0
    BANK12          256      0       0
    BANK13          256      0       0
    BANK14          256      0       0
    BANK15          128      0       0

Pointer List with Targets:

    ADC_get_conversion_result@adc_obj	PTR const struct . size(1) Largest target is 4
		 -> adc_1(COMRAM[4]), 

    ADC_get_conversion_result@adc_result	PTR unsigned short  size(1) Largest target is 2
		 -> lm35_res(COMRAM[2]), 

    ADC_get_conversion_result_blocking@adc_obj	PTR const struct . size(1) Largest target is 4
		 -> adc_1(COMRAM[4]), 

    ADC_get_conversion_result_blocking@adc_result	PTR unsigned short  size(1) Largest target is 2
		 -> lm35_res(COMRAM[2]), 

    ADC_Init@adc_obj	PTR const struct . size(1) Largest target is 4
		 -> adc_1(COMRAM[4]), 

    ADC_select_channel@adc_obj	PTR const struct . size(1) Largest target is 4
		 -> adc_1(COMRAM[4]), 

    ADC_start_conversion@adc_obj	PTR const struct . size(1) Largest target is 4
		 -> adc_1(COMRAM[4]), 

    configure_adc_result_format@adc_obj	PTR const struct . size(1) Largest target is 4
		 -> adc_1(COMRAM[4]), 

    configure_adc_volatage_ref@adc_obj	PTR const struct . size(1) Largest target is 4
		 -> adc_1(COMRAM[4]), 

    convert_uint16_to_string@str	PTR unsigned char  size(1) Largest target is 7
		 -> lm35_txt(BANK0[7]), 

    f$.$buffer	PTR unsigned char  size(2) Largest target is 0

    f$.$source	PTR const unsigned char  size(2) Largest target is 0

    fputc@fp	PTR struct _IO_FILE size(1) Largest target is 12
		 -> sprintf@f(COMRAM[12]), 

    fputc@fp$.$buffer	PTR unsigned char  size(2) Largest target is 0

    fputc@fp$.$source	PTR const unsigned char  size(2) Largest target is 0

    gpio_pin_direction_init@pin_confg	PTR const struct . size(1) Largest target is 10
		 -> lcd_1(BANK0[10]), lcd_1$lcd_8bit_pins(BANK0[8]), led_init@pin_cfg(COMRAM[1]), relay_init@pin_obj(COMRAM[1]), 

    gpio_pin_init@pin_confg	PTR const struct . size(1) Largest target is 10
		 -> lcd_1(BANK0[10]), lcd_1$lcd_8bit_pins(BANK0[8]), led_init@pin_cfg(COMRAM[1]), relay_init@pin_obj(COMRAM[1]), 

    gpio_pin_write@pin_confg	PTR const struct . size(1) Largest target is 10
		 -> lcd_1(BANK0[10]), lcd_1$lcd_8bit_pins(BANK0[8]), led_init@pin_cfg(COMRAM[1]), led_off@pin_cfg(COMRAM[1]), 
		 -> led_on@pin_cfg(COMRAM[1]), relay_init@pin_obj(COMRAM[1]), relay_off@pin_obj(COMRAM[1]), relay_on@pin_obj(COMRAM[1]), 

    INT0_InterruptHandler	PTR FTN()void  size(2) Largest target is 1
		 -> NULL(), 

    INT1_InterruptHandler	PTR FTN()void  size(2) Largest target is 1
		 -> NULL(), 

    INT2_InterruptHandler	PTR FTN()void  size(2) Largest target is 1
		 -> NULL(), 

    interrupt_INTx_clear_flag@intr_obj$external_interrupt_handler	PTR FTN()void  size(2) Largest target is 0

    interrupt_INTx_Disable@intr_obj$external_interrupt_handler	PTR FTN()void  size(2) Largest target is 0

    interrupt_INTx_edge_set@intr_obj$external_interrupt_handler	PTR FTN()void  size(2) Largest target is 0

    interrupt_INTx_Enable@intr_obj$external_interrupt_handler	PTR FTN()void  size(2) Largest target is 0

    interrupt_INTx_pin_cfg@intr_obj$external_interrupt_handler	PTR FTN()void  size(2) Largest target is 0

    interrupt_INTx_set_interrupt_handler@intr_obj$external_interrupt_handler	PTR FTN()void  size(2) Largest target is 0

    interrupt_RBx_Init@intr_obj$external_High_interrupt_handler	PTR FTN()void  size(2) Largest target is 0

    interrupt_RBx_Init@intr_obj$external_Low_interrupt_handler	PTR FTN()void  size(2) Largest target is 0

    lat_reg	PTR volatile unsigned char [5] size(2) Largest target is 1
		 -> LATA(BITBIGSFRll[1]), LATB(BITBIGSFRlh[1]), LATC(BITBIGSFRlh[1]), LATD(BITBIGSFRlh[1]), 
		 -> LATE(BITBIGSFRlh[1]), 

    lcd_init@lcd_obj	PTR const struct . size(1) Largest target is 10
		 -> lcd_1(BANK0[10]), 

    lcd_send_bits@lcd_obj	PTR const struct . size(1) Largest target is 10
		 -> lcd_1(BANK0[10]), 

    lcd_send_char_data@lcd_obj	PTR const struct . size(1) Largest target is 10
		 -> lcd_1(BANK0[10]), 

    lcd_send_command@lcd_obj	PTR const struct . size(1) Largest target is 10
		 -> lcd_1(BANK0[10]), 

    lcd_send_enable_signal@lcd_obj	PTR const struct . size(1) Largest target is 10
		 -> lcd_1(BANK0[10]), 

    lcd_send_string_data@lcd_obj	PTR const struct . size(1) Largest target is 10
		 -> lcd_1(BANK0[10]), 

    lcd_send_string_data@str	PTR unsigned char  size(2) Largest target is 15
		 -> lm35_txt(BANK0[7]), STR_4(CODE[15]), STR_5(CODE[15]), 

    lcd_send_string_data_position@lcd_obj	PTR const struct . size(1) Largest target is 10
		 -> lcd_1(BANK0[10]), 

    lcd_send_string_data_position@str	PTR unsigned char  size(2) Largest target is 15
		 -> lm35_txt(BANK0[7]), STR_4(CODE[15]), STR_5(CODE[15]), 

    lcd_set_cursor_position@lcd_obj	PTR const struct . size(1) Largest target is 10
		 -> lcd_1(BANK0[10]), 

    memset@dest	PTR void  size(1) Largest target is 7
		 -> lm35_txt(BANK0[7]), 

    memset@p	PTR unsigned char  size(1) Largest target is 7
		 -> lm35_txt(BANK0[7]), 

    port_reg	PTR volatile unsigned char [5] size(2) Largest target is 1
		 -> PORTA(BITBIGSFRll[1]), PORTB(BITBIGSFRll[1]), PORTC(BITBIGSFRll[1]), PORTD(BITBIGSFRll[1]), 
		 -> PORTE(BITBIGSFRll[1]), 

    RB4_High_InterruptHandler	PTR FTN()void  size(2) Largest target is 1
		 -> NULL(), 

    RB4_Low_InterruptHandler	PTR FTN()void  size(2) Largest target is 1
		 -> NULL(), 

    RB5_High_InterruptHandler	PTR FTN()void  size(2) Largest target is 1
		 -> NULL(), 

    RB5_Low_InterruptHandler	PTR FTN()void  size(2) Largest target is 1
		 -> NULL(), 

    RB6_High_InterruptHandler	PTR FTN()void  size(2) Largest target is 1
		 -> NULL(), 

    RB6_Low_InterruptHandler	PTR FTN()void  size(2) Largest target is 1
		 -> NULL(), 

    RB7_High_InterruptHandler	PTR FTN()void  size(2) Largest target is 1
		 -> NULL(), 

    RB7_Low_InterruptHandler	PTR FTN()void  size(2) Largest target is 1
		 -> NULL(), 

    S2352$buffer	PTR unsigned char  size(2) Largest target is 0

    S2352$source	PTR const unsigned char  size(2) Largest target is 0

    S845$external_interrupt_handler	PTR FTN()void  size(2) Largest target is 0

    S883$external_High_interrupt_handler	PTR FTN()void  size(2) Largest target is 0

    S883$external_Low_interrupt_handler	PTR FTN()void  size(2) Largest target is 0

    sp__memset	PTR void  size(1) Largest target is 7
		 -> lm35_txt(BANK0[7]), 

    sprintf@ap	PTR void [1] size(1) Largest target is 2
		 -> ?_sprintf(COMRAM[2]), 

    sprintf@fmt	PTR const unsigned char  size(1) Largest target is 3
		 -> STR_1(CODE[3]), STR_2(CODE[3]), STR_3(CODE[3]), 

    sprintf@s	PTR unsigned char  size(1) Largest target is 7
		 -> lm35_txt(BANK0[7]), 

    tris_reg	PTR volatile unsigned char [5] size(2) Largest target is 1
		 -> TRISA(BITBIGSFRll[1]), TRISB(BITBIGSFRhllll[1]), TRISC(BITBIGSFRhllll[1]), TRISD(BITBIGSFRhllll[1]), 
		 -> TRISE(BITBIGSFRhllll[1]), 

    vfpfcnvrt@ap	PTR PTR void  size(1) Largest target is 1
		 -> sprintf@ap(COMRAM[1]), 

    vfpfcnvrt@cp	PTR unsigned char  size(1) Largest target is 3
		 -> STR_1(CODE[3]), STR_2(CODE[3]), STR_3(CODE[3]), 

    vfpfcnvrt@fmt	PTR PTR unsigned char  size(1) Largest target is 1
		 -> vfprintf@cfmt(COMRAM[1]), 

    vfpfcnvrt@fp	PTR struct _IO_FILE size(1) Largest target is 12
		 -> sprintf@f(COMRAM[12]), 

    vfprintf@ap	PTR PTR void  size(1) Largest target is 1
		 -> sprintf@ap(COMRAM[1]), 

    vfprintf@cfmt	PTR unsigned char  size(1) Largest target is 3
		 -> STR_1(CODE[3]), STR_2(CODE[3]), STR_3(CODE[3]), 

    vfprintf@fmt	PTR const unsigned char  size(1) Largest target is 3
		 -> STR_1(CODE[3]), STR_2(CODE[3]), STR_3(CODE[3]), 

    vfprintf@fp	PTR struct _IO_FILE size(1) Largest target is 12
		 -> sprintf@f(COMRAM[12]), 


Critical Paths under _main in COMRAM

    _main->___fltol
    _lcd_send_string_data_position->_lcd_set_cursor_position
    _lcd_set_cursor_position->_lcd_send_command
    _lcd_send_string_data->_lcd_send_char_data
    _lcd_send_char_data->_lcd_send_bits
    _convert_uint16_to_string->_sprintf
    _sprintf->_vfprintf
    _vfprintf->_vfpfcnvrt
    _vfpfcnvrt->_abs
    _abs->___awmod
    _app_init->_lcd_init
    _lcd_init->_lcd_send_command
    _lcd_send_command->_lcd_send_bits
    _lcd_send_enable_signal->_gpio_pin_write
    _lcd_send_bits->_gpio_pin_write
    _gpio_pin_init->_gpio_pin_write
    _ADC_Init->_configure_adc_channel_port
    ___fltol->___fldiv
    ___flmul->___xxtofl
    ___fldiv->___flmul
    _ADC_get_conversion_result_blocking->_ADC_get_conversion_result
    _ADC_select_channel->_configure_adc_channel_port

Critical Paths under _General_Interrupt_Manager in COMRAM

    _General_Interrupt_Manager->_RB4_ISR
    _General_Interrupt_Manager->_RB5_ISR
    _General_Interrupt_Manager->_RB6_ISR
    _General_Interrupt_Manager->_RB7_ISR

Critical Paths under _main in BANK0

    None.

Critical Paths under _General_Interrupt_Manager in BANK0

    None.

Critical Paths under _main in BANK1

    None.

Critical Paths under _General_Interrupt_Manager in BANK1

    None.

Critical Paths under _main in BANK2

    None.

Critical Paths under _General_Interrupt_Manager in BANK2

    None.

Critical Paths under _main in BANK3

    None.

Critical Paths under _General_Interrupt_Manager in BANK3

    None.

Critical Paths under _main in BANK4

    None.

Critical Paths under _General_Interrupt_Manager in BANK4

    None.

Critical Paths under _main in BANK5

    None.

Critical Paths under _General_Interrupt_Manager in BANK5

    None.

Critical Paths under _main in BANK6

    None.

Critical Paths under _General_Interrupt_Manager in BANK6

    None.

Critical Paths under _main in BANK7

    None.

Critical Paths under _General_Interrupt_Manager in BANK7

    None.

Critical Paths under _main in BANK8

    None.

Critical Paths under _General_Interrupt_Manager in BANK8

    None.

Critical Paths under _main in BANK9

    None.

Critical Paths under _General_Interrupt_Manager in BANK9

    None.

Critical Paths under _main in BANK10

    None.

Critical Paths under _General_Interrupt_Manager in BANK10

    None.

Critical Paths under _main in BANK11

    None.

Critical Paths under _General_Interrupt_Manager in BANK11

    None.

Critical Paths under _main in BANK12

    None.

Critical Paths under _General_Interrupt_Manager in BANK12

    None.

Critical Paths under _main in BANK13

    None.

Critical Paths under _General_Interrupt_Manager in BANK13

    None.

Critical Paths under _main in BANK14

    None.

Critical Paths under _General_Interrupt_Manager in BANK14

    None.

Critical Paths under _main in BANK15

    None.

Critical Paths under _General_Interrupt_Manager in BANK15

    None.

Call Graph Tables:

 ---------------------------------------------------------------------------------
 (Depth) Function   	        Calls       Base Space   Used Autos Params    Refs
 ---------------------------------------------------------------------------------
 (0) _main                                                 0     0      0   56829
 _ADC_get_conversion_result_blocking
                            ___fldiv
                            ___flmul
                            ___fltol
                           ___xxtofl
                           _app_init
           _convert_uint16_to_string
      _lcd_send_string_data_position
 ---------------------------------------------------------------------------------
 (1) _lcd_send_string_data_position                        6     1      5   27402
                                             24 COMRAM     6     1      5
               _lcd_send_string_data
            _lcd_set_cursor_position
 ---------------------------------------------------------------------------------
 (2) _lcd_set_cursor_position                              6     3      3   14220
                                             19 COMRAM     5     2      3
                   _lcd_send_command
 ---------------------------------------------------------------------------------
 (2) _lcd_send_string_data                                 4     1      3   12112
                                             18 COMRAM     4     1      3
                 _lcd_send_char_data
 ---------------------------------------------------------------------------------
 (3) _lcd_send_char_data                                   3     1      2   11846
                                             15 COMRAM     3     1      2
                     _gpio_pin_write
                      _lcd_send_bits
             _lcd_send_enable_signal
 ---------------------------------------------------------------------------------
 (1) _convert_uint16_to_string                             4     1      3    4635
                                             43 COMRAM     3     0      3
                             _memset
                            _sprintf
 ---------------------------------------------------------------------------------
 (2) _sprintf                                             19    15      4    3591
                                             26 COMRAM    17    13      4
                           _vfprintf
 ---------------------------------------------------------------------------------
 (3) _vfprintf                                             4     1      3    2936
                                             22 COMRAM     4     1      3
                          _vfpfcnvrt
 ---------------------------------------------------------------------------------
 (4) _vfpfcnvrt                                           11     8      3    2586
                                             11 COMRAM    11     8      3
                            ___awdiv
                            ___awmod
                                _abs
                              _fputc
 ---------------------------------------------------------------------------------
 (5) _fputc                                                8     5      3     782
                                              1 COMRAM     8     5      3
                              _putch
 ---------------------------------------------------------------------------------
 (6) _putch                                                1     1      0       0
 ---------------------------------------------------------------------------------
 (5) _abs                                                  4     2      2     142
                                              7 COMRAM     4     2      2
                            ___awmod (ARG)
 ---------------------------------------------------------------------------------
 (5) ___awmod                                              6     2      4     448
                                              1 COMRAM     6     2      4
 ---------------------------------------------------------------------------------
 (5) ___awdiv                                              8     4      4     452
                                              1 COMRAM     8     4      4
 ---------------------------------------------------------------------------------
 (2) _memset                                               6     1      5     780
                                              1 COMRAM     6     1      5
 ---------------------------------------------------------------------------------
 (1) _app_init                                             0     0      0   19633
                           _ADC_Init
                           _lcd_init
 ---------------------------------------------------------------------------------
 (2) _lcd_init                                             4     3      1   19116
                                             19 COMRAM     4     3      1
                      _gpio_pin_init
                   _lcd_send_command
 ---------------------------------------------------------------------------------
 (3) _lcd_send_command                                     4     2      2   13519
                                             15 COMRAM     4     2      2
                     _gpio_pin_write
                      _lcd_send_bits
             _lcd_send_enable_signal
 ---------------------------------------------------------------------------------
 (4) _lcd_send_enable_signal                               2     1      1    3744
                                              9 COMRAM     2     1      1
                     _gpio_pin_write
 ---------------------------------------------------------------------------------
 (4) _lcd_send_bits                                        6     4      2    3986
                                              9 COMRAM     6     4      2
                     _gpio_pin_write
 ---------------------------------------------------------------------------------
 (3) _gpio_pin_init                                        3     2      1    5130
                                              9 COMRAM     3     2      1
            _gpio_pin_direction_init
                     _gpio_pin_write
 ---------------------------------------------------------------------------------
 (5) _gpio_pin_write                                       8     6      2    3523
                                              1 COMRAM     8     6      2
 ---------------------------------------------------------------------------------
 (4) _gpio_pin_direction_init                              7     6      1     559
                                              1 COMRAM     7     6      1
 ---------------------------------------------------------------------------------
 (2) _ADC_Init                                             3     2      1     517
                                              4 COMRAM     3     2      1
         _configure_adc_channel_port
        _configure_adc_result_format
         _configure_adc_volatage_ref
 ---------------------------------------------------------------------------------
 (3) _configure_adc_volatage_ref                           1     0      1     120
                                              1 COMRAM     1     0      1
 ---------------------------------------------------------------------------------
 (3) _configure_adc_result_format                          1     0      1     120
                                              1 COMRAM     1     0      1
 ---------------------------------------------------------------------------------
 (1) ___xxtofl                                            14    10      4     398
                                              1 COMRAM    14    10      4
 ---------------------------------------------------------------------------------
 (1) ___fltol                                             10     6      4     305
                                             65 COMRAM    10     6      4
                            ___fldiv (ARG)
                            ___flmul (ARG)
                           ___xxtofl (ARG)
 ---------------------------------------------------------------------------------
 (1) ___flmul                                             25    17      8    1744
                                             15 COMRAM    25    17      8
                           ___xxtofl (ARG)
 ---------------------------------------------------------------------------------
 (1) ___fldiv                                             25    17      8    1399
                                             40 COMRAM    25    17      8
                            ___flmul (ARG)
                           ___xxtofl (ARG)
 ---------------------------------------------------------------------------------
 (1) _ADC_get_conversion_result_blocking                   4     1      3    1313
                                             10 COMRAM     4     1      3
          _ADC_get_conversion_result
                 _ADC_select_channel
               _ADC_start_conversion
 ---------------------------------------------------------------------------------
 (2) _ADC_start_conversion                                 2     1      1     199
                                              1 COMRAM     2     1      1
 ---------------------------------------------------------------------------------
 (2) _ADC_select_channel                                   4     2      2     417
                                              4 COMRAM     4     2      2
         _configure_adc_channel_port
 ---------------------------------------------------------------------------------
 (3) _configure_adc_channel_port                           3     3      0      22
                                              1 COMRAM     3     3      0
 ---------------------------------------------------------------------------------
 (2) _ADC_get_conversion_result                            9     7      2     309
                                              1 COMRAM     9     7      2
 ---------------------------------------------------------------------------------
 Estimated maximum stack depth 6
 ---------------------------------------------------------------------------------
 (Depth) Function   	        Calls       Base Space   Used Autos Params    Refs
 ---------------------------------------------------------------------------------
 (7) _General_Interrupt_Manager                            0     0      0     120
                           _INT0_ISR
                           _INT1_ISR
                           _INT2_ISR
                            _RB4_ISR
                            _RB5_ISR
                            _RB6_ISR
                            _RB7_ISR
 ---------------------------------------------------------------------------------
 (8) _RB7_ISR                                              1     1      0      30
                                              0 COMRAM     1     1      0
 ---------------------------------------------------------------------------------
 (8) _RB6_ISR                                              1     1      0      30
                                              0 COMRAM     1     1      0
 ---------------------------------------------------------------------------------
 (8) _RB5_ISR                                              1     1      0      30
                                              0 COMRAM     1     1      0
 ---------------------------------------------------------------------------------
 (8) _RB4_ISR                                              1     1      0      30
                                              0 COMRAM     1     1      0
 ---------------------------------------------------------------------------------
 (8) _INT2_ISR                                             0     0      0       0
 ---------------------------------------------------------------------------------
 (8) _INT1_ISR                                             0     0      0       0
 ---------------------------------------------------------------------------------
 (8) _INT0_ISR                                             0     0      0       0
 ---------------------------------------------------------------------------------
 Estimated maximum stack depth 8
 ---------------------------------------------------------------------------------

 Call Graph Graphs:

 _main (ROOT)
   _ADC_get_conversion_result_blocking
     _ADC_get_conversion_result
     _ADC_select_channel
       _configure_adc_channel_port
     _ADC_start_conversion
   ___fldiv
     ___flmul (ARG)
       ___xxtofl (ARG)
     ___xxtofl (ARG)
   ___flmul
   ___fltol
     ___fldiv (ARG)
     ___flmul (ARG)
     ___xxtofl (ARG)
   ___xxtofl
   _app_init
     _ADC_Init
       _configure_adc_channel_port
       _configure_adc_result_format
       _configure_adc_volatage_ref
     _lcd_init
       _gpio_pin_init
         _gpio_pin_direction_init
         _gpio_pin_write
       _lcd_send_command
         _gpio_pin_write
         _lcd_send_bits
           _gpio_pin_write
         _lcd_send_enable_signal
           _gpio_pin_write
   _convert_uint16_to_string
     _memset
     _sprintf
       _vfprintf
         _vfpfcnvrt
           ___awdiv
           ___awmod
           _abs
             ___awmod (ARG)
           _fputc
             _putch
   _lcd_send_string_data_position
     _lcd_send_string_data
       _lcd_send_char_data
         _gpio_pin_write
         _lcd_send_bits
         _lcd_send_enable_signal
     _lcd_set_cursor_position
       _lcd_send_command

 _General_Interrupt_Manager (ROOT)
   _INT0_ISR
   _INT1_ISR
   _INT2_ISR
   _RB4_ISR
   _RB5_ISR
   _RB6_ISR
   _RB7_ISR

 Address spaces:
Name               Size   Autos  Total    Cost      Usage
BIGRAM             F7F      0       0      43        0.0%
EEDATA             400      0       0       0        0.0%
BITBANK14          100      0       0      32        0.0%
BANK14             100      0       0      33        0.0%
BITBANK13          100      0       0      30        0.0%
BANK13             100      0       0      31        0.0%
BITBANK12          100      0       0      28        0.0%
BANK12             100      0       0      29        0.0%
BITBANK11          100      0       0      26        0.0%
BANK11             100      0       0      27        0.0%
BITBANK10          100      0       0      24        0.0%
BANK10             100      0       0      25        0.0%
BITBANK9           100      0       0      22        0.0%
BANK9              100      0       0      23        0.0%
BITBANK8           100      0       0      20        0.0%
BANK8              100      0       0      21        0.0%
BITBANK7           100      0       0      18        0.0%
BANK7              100      0       0      19        0.0%
BITBANK6           100      0       0      16        0.0%
BANK6              100      0       0      17        0.0%
BITBANK5           100      0       0      14        0.0%
BANK5              100      0       0      15        0.0%
BITBANK4           100      0       0      12        0.0%
BANK4              100      0       0      13        0.0%
BITBANK3           100      0       0      10        0.0%
BANK3              100      0       0      11        0.0%
BITBANK2           100      0       0       8        0.0%
BANK2              100      0       0       9        0.0%
BITBANK1           100      0       0       6        0.0%
BANK1              100      0       0       7        0.0%
BITBANK15           80      0       0      34        0.0%
BANK15              80      0       0      35        0.0%
BITBANK0            80      0       0       4        0.0%
BANK0               80      0      4F       5       61.7%
BITCOMRAM           7E      0       0       0        0.0%
COMRAM              7E     4B      7B       1       97.6%
BITBIGSFRhllhhh     2B      0       0      37        0.0%
BITBIGSFRhllhll     15      0       0      38        0.0%
BITBIGSFRhllll       F      0       0      39        0.0%
BITBIGSFRhh          D      0       0      36        0.0%
BITBIGSFRlh          4      0       0      40        0.0%
BITBIGSFRll          4      0       0      41        0.0%
BIGSFR               0      0       0     200        0.0%
BITSFR               0      0       0     200        0.0%
SFR                  0      0       0     200        0.0%
STACK                0      0       0       2        0.0%
NULL                 0      0       0       0        0.0%
ABS                  0      0      CA      42        0.0%
DATA                 0      0      CA       3        0.0%
CODE                 0      0       0       0        0.0%


Microchip Technology PIC18 Macro Assembler V2.45 build 20230818022343 
Symbol Table                                                                                   Wed Nov 06 13:39:52 2024

                                ___fldiv@aexp 0041                                  ___fldiv@bexp 0040  
                                ___fldiv@sign 0039                                ?_lcd_send_bits 000A  
                                ___awdiv@sign 0007                                           l202 2AD2  
                                         l214 2684                                           l226 2988  
                                         l229 2C68                                           l174 230C  
                                         l239 2A12                                           l184 2A54  
                                         l602 1F16                                           l179 29CE  
                                         l621 2026                                           l197 282A  
                                         l642 28EA                                           _abs 2BB8  
                                         _ret 007B                                   lcd_init@ret 0017  
                                ___awmod@sign 0007                                           wreg 0FE8  
                    _RB4_Low_InterruptHandler 005C                    __end_of_lcd_send_char_data 2A56  
                                 led_on@F3067 006D                                  ___flmul@aexp 0021  
                                ___flmul@bexp 0022                      _RB7_Low_InterruptHandler 0050  
                                ___flmul@sign 001C                                  ___flmul@temp 0027  
                                ___flmul@prod 0023                     ?_convert_uint16_to_string 002C  
                   _ADC_get_conversion_result 2718                               __end_of_RB4_ISR 2CF4  
                             __end_of_RB5_ISR 2CDA                               __end_of_RB6_ISR 2CC0  
                             __end_of_RB7_ISR 2CA6                                  ___fltol@exp1 004B  
                                        l1112 2D08                                          ?_abs 0008  
                                        l1230 2716                                          l1240 2C8A  
                                        l2033 1C3C                                          l1250 2B82  
                                        l2043 2BD2                                          l1308 248A  
                                        l1228 269E                                          l1238 2C82  
                                        l2046 2BEA                                          l1239 2C88  
                                        l2039 2A94                                          l1264 291C  
                                        l1280 2B0C                                          l4001 23AA  
                                        l1290 2B4A                                          l2058 25E4  
                                        l1259 27A6                                          l1267 293E  
                                        l1283 2B10                                          l4003 23B0  
                                        l4011 248C                                          l1276 2AEC  
                                        l4005 23C0                                          l4021 24B8  
                                        l4013 2490                                          l2069 2D1E  
                                        l1542 23D0                                          l4111 2C66  
                                        l4103 2C44                                          l4007 23C8  
                                        l4031 24F0                                          l4023 24C0  
                                        l4015 249E                                          l1608 212C  
                                        l4201 23DE                                          l4105 2C44  
                                        l4041 252A                                          l4033 2506  
                                        l4025 24D2                                          l4017 24A6  
                                        l4121 1AB6                                          l4203 23E4  
                                        l4107 2C50                                          l1555 253A  
                                        l4043 2532                                          l4035 250E  
                                        l4027 24DA                                          l4019 24AA  
                                        l4051 255C                                          l4131 1B18  
                                        l4123 1ABA                                          l4115 1A7E  
                                        l4221 2402                                          l4205 23EA  
                                        l4109 2C58                                          l4037 2514  
                                        l4029 24E2                                          l4061 2BB8  
                                        l4053 2566                                          l4141 1B98  
                                        l4133 1B22                                          l4125 1AC4  
                                        l4117 1AA2                                          l4301 25F6  
                                        l4215 23FC                                          l4207 23F0  
                                        l4071 1E2E                                          l4039 251A  
                                        l4063 2BC6                                          l4055 2582  
                                        l4047 253C                                          l4151 1BF4  
                                        l4143 1BA8                                          l4135 1B3A  
                                        l4127 1AE2                                          l4119 1AAA  
                                        l4311 2636                                          l4303 25FA  
                                        l1904 169C                                          l4401 2718  
                                        l4209 23F6                                          l4241 2B30  
                                        l4233 2AD4                                          l4073 1E84  
                                        l4065 1DF2                                          l4057 25B4  
                                        l4049 254C                                          l4145 1BB8  
                                        l4153 1BF6                                          l4137 1B6A  
                                        l4129 1B00                                          l4305 2600  
                                        l1906 1714                                          l4411 277E  
                                        l4403 2728                                          l4227 2408  
                                        l1907 1702                                          l4243 2B48  
                                        l4235 2AF4                                          l4067 1E06  
                                        l4171 28C6                                          l4147 1BC8  
                                        l4139 1B86                                          l4155 1C0C  
                                        l4251 2A8C                                          l4331 27F2  
                                        l4307 2612                                          l4315 2648  
                                        l1932 12EE                                          l4405 2730  
                                        l4501 14E0                                          l1925 10F8  
                                        l4237 2B12                                          l4077 1ED4  
                                        l4069 1E26                                          l4173 28E8  
                                        l4165 288E                                          l4093 2948  
                                        l4181 29A6                                          l4261 2258  
                                        l4341 2BF4                                          l4149 1BDA  
                                        l4245 2A56                                          l4333 27F6  
                                        l4325 27A8                                          l4309 2624  
                                        l4317 2682                                          l1942 141E  
                                        l1934 1366                                          l4415 27A0  
                                        l4407 2748                                          l4503 14F0  
                                        l4511 151A                                          l1935 1354  
                                        l4239 2B2A                                          l4079 1F14  
                                        l4167 289E                                          l4095 2974  
                                        l4087 2940                                          l4183 29CC  
                                        l4271 226A                                          l4255 2228  
                                        l4343 2BFE                                          l4159 1C18  
                                        l4247 2A5E                                          l4351 2B94  
                                        l4191 2A2C                                          l4335 2828  
                                        l4327 27BC                                          l4409 277E  
                                        l4417 27A4                                          l4601 17E4  
                                        l4521 155C                                          l4513 152A  
                                        l4505 1500                                          l1929 145C  
                                        l4361 2696                                          l4169 28BE  
                                        l4097 2976                                          l4177 298A  
                                        l4281 22B4                                          l4273 227A  
                                        l4257 223C                                          l4345 2C00  
                                        l4249 2A6E                                          l4353 2B9C  
                                        l4193 2A52                                          l4329 27C4  
                                        l4441 2AD0                                          l4433 2A96  
                                        l4603 17EA                                          l4515 1540  
                                        l4507 1510                                          l4371 270E  
                                        l4363 26A0                                          l4099 2986  
                                        l4179 299E                                          l4291 22F0  
                                        l4283 22C0                                          l4275 2288  
                                        l4267 225C                                          l4259 2244  
                                        l4339 2BEC                                          l4355 2BAC  
                                        l4347 2B84                                          l4451 29FC  
                                        l4187 2A14                                          l4435 2AA6  
                                        l1980 1D88                                          l4197 23D4  
                                        l4381 2C7A                                          l4461 28EC  
                                        l4605 17EC                                          l4541 15DE  
                                        l4533 1594                                          l1893 17F6  
                                        l4517 1550                                          l4525 1570  
                                        l4509 1512                                          l4701 12FE  
                                        l4621 1060                                          l4613 1034  
                                        l1973 1D2C                                          l4373 2710  
                                        l4365 26EE                                          l4293 22FC  
                                        l4285 22CC                                          l4277 2294  
                                        l4269 2268                                          l4349 2B8C  
                                        l4453 2A10                                          l4445 29D0  
                                        l4189 2A24                                          l4437 2AAE  
                                        l5341 212E                                          l1966 1C94  
                                        l4199 23D8                                          l4391 2B64  
                                        l4383 2C84                                          l4471 293C  
                                        l4463 28FC                                          l4551 1624  
                                        l4543 15E6                                          l1895 1656  
                                        l4535 15AE                                          l4527 1580  
                                        l4519 1558                                          l4703 130C  
                                        l4631 109C                                          l4623 1070  
                                        l4615 1040                                          l4367 26FE  
                                        l4375 2714                                          l4359 2686  
                                        l4287 22D8                                          l4279 22AE  
                                        l4295 230A                                          l4447 29E0  
                                        l4439 2ABE                                          l5351 21F6  
                                        l5343 2132                                          l4393 2B76  
                                        l4465 2904                                          l4561 167C  
                                        l4553 1642                                          l4545 15F6  
                                        l4537 15BE                                          l4529 1580  
                                        l4481 147A                                          l4713 1376  
                                        l4721 13BE                                          l4705 1310  
                                        l4641 10D2                                          l4633 10A2  
                                        l4625 1080                                          l4617 104E  
                                        l4801 1CD6                                          l1969 1DF0  
                                        l4369 2706                                          l4289 22E4  
                                        l4457 2CF4                                          l4449 29E4  
                                        l5353 2208                                          l5345 2150  
                                        l1898 161A                                          l4395 2B7C  
                                        l4387 2B4C                                          l4379 2C6A  
                                        l4467 292A                                          l4571 16BA  
                                        l4563 1682                                          l4555 1644  
                                        l4547 160A                                          l4539 15CE  
                                        l4483 148A                                          l4491 14B4  
                                        l4475 145E                                          l4731 1432  
                                        l4723 13D8                                          l4715 1382  
                                        l4707 131E                                          l4643 10E2  
                                        l4635 10B0                                          l4627 1086  
                                        l4619 1050                                          l4811 1D5E  
                                        l4803 1CE2                                          l4459 2CFE  
                                        l1995 2BB6                                          l4299 25E6  
                                        l5347 216E                                          l1988 2C1A  
                                        l4397 2B80                                          l4389 2B5C  
                                        l4469 2938                                          l4581 1724  
                                        l4573 16BE                                          l4565 168C  
                                        l4557 1654                                          l4549 1618  
                                        l4493 14C4                                          l4485 149A  
                                        l4477 146A                                          l4733 1440  
                                        l4725 13EC                                          l4717 1390  
                                        l4709 134C                                          l4661 1164  
                                        l4653 112C                                          l4645 10E8  
                                        l4637 10B2                                          l4629 1096  
                                        l4821 1D9C                                          l4813 1D6A  
                                        l4805 1D14                                          l5349 2180  
                                        l4591 1786                                          l4583 1730  
                                        l4575 16CC                                          l4567 169A  
                                        l4559 1666                                          l4495 14CA  
                                        l4487 14AA                                          l4479 1478  
                                        l4735 1442                                          l4727 1406  
                                        l4719 13BA                                          l4671 11AE  
                                        l4663 117C                                          l4655 1138  
                                        l4647 1108                                          l4639 10C2  
                                        l4751 207C                                          l4743 2028  
                                        l4823 1DC0                                          l4815 1D78  
                                        l4807 1D16                                          l3951 1F54  
                                        l5383 265C                                          l4593 179C  
                                        l4585 173E                                          l4577 16FA  
                                        l4569 16AC                                          l4497 14D0  
                                        l4489 14AC                                          l4729 1422  
                                        l4737 1448                                          l4681 1204  
                                        l4673 11BE                                          l4665 1188  
                                        l4657 1142                                          l4649 1118  
                                        l4753 207E                                          l4745 203E  
                                        l4825 1DD0                                          l4817 1D96  
                                        l4809 1D22                                          l5385 200E  
                                        l3953 1FAA                                          l3945 1F18  
                                        l4595 17B6                                          l4587 1768  
                                        l4499 14DE                                          l4739 144C  
                                        l4691 12A8                                          l4683 1220  
                                        l4675 11CA                                          l4667 1194  
                                        l4659 1158                                          l4755 208E  
                                        l4827 1DDE                                          l4819 1D98  
                                        l5387 1EFE                                          l3947 1F2C  
                                        l3971 2320                                          l5389 241C  
                                        l4597 17D2                                          l4589 176C  
                                        l4693 12B6                                          l4685 122C  
                                        l4677 11DA                                          l4669 11A2  
                                        l4781 210C                                          l4765 20B8  
                                        l4757 2092                                          l4749 2052  
                                        l4829 1DE0                                          l3957 1FFA  
                                        l3949 1F4C                                          l3981 2346  
                                        l3973 2328                                          l4599 17D6  
                                        l4695 12D4                                          l4687 1248  
                                        l4679 11F4                                          l4783 211C  
                                        l4775 20E0                                          l4767 20C2  
                                        l4759 20A0                                          l4791 1C5E  
                                        l3959 2024                                          l3991 237E  
                                        l3983 234E                                          l3975 232C  
                                        l3967 230E                                          l4697 12DE  
                                        l4689 1272                                          l4777 20EC  
                                        l4769 20CC                                          l4793 1CA4  
                                        l3993 2384                                          l3985 2360  
                                        l3977 233A                                          l3969 2312  
                                        l4699 12EC                                          l4779 20FC  
                                        l4795 1CBA                                          l4787 1C40  
                                        l3995 239A                                          l3987 2368  
                                        l3979 2342                                          l4789 1C50  
                                        l3997 23A2                                          l3989 2370  
                                        l4799 1CCE                                          l3999 23A4  
                                        STR_1 102F                                          STR_2 102F  
                                        STR_4 1020                                          STR_5 1011  
                                        u3000 2A8C                                          u3001 2A88  
                                        u3010 223C                                          u3011 2238  
                                        u3100 2C7A                                          u3020 227A  
                                        u3101 2C76                                          u3021 2276  
                                        _LATA 0F89                                          u3110 2B5C  
                                        u3030 25F6                                          _LATB 0F8A  
                                        u3111 2B58                                          u3031 25F2  
                                        _LATC 0F8B                                          u3120 2728  
                                        u3200 1478                                          u3040 27BC  
                                        _LATD 0F8C                                          u3121 2724  
                                        u3201 1474                                          u3041 27B8  
                                        _LATE 0F8D                                          u3130 2748  
                                        u3210 148A                                          u3050 27EA  
                                        u3131 2744                                          u3211 1486  
                                        u3300 1642                                          u3220 149A  
                                        u3060 2818                                          u3301 163E  
                                        u3221 1496                                          u3310 1666  
                                        u3230 14DE                                          u3070 2828  
                                        u3311 1662                                          u3231 14DA  
                                        u3071 2824                                          u3400 1786  
                                        u3320 167C                                          u3240 14F0  
                                        u3080 2C1A                                          u2600 237E  
                                        u3160 2AA6                                          u3145 2750  
                                        u3401 1782                                          u3321 1678  
                                        u3241 14EC                                          u3081 2C16  
                                        u2601 237A                                          u3057 27E0  
                                        u3161 2AA2                                          u3410 17B6  
                                        u3330 169A                                          u3250 1500  
                                        u3090 2696                                          u2530 1F2C  
                                        u2610 239A                                          u3170 29E0  
                                        u3411 17B2                                          u3331 1696  
                                        u3251 14FC                                          u3091 2692  
                                        u2531 1F28                                          u2611 2396  
                                        u3171 29DC                                          u3067 280E  
                                        u3180 28FC                                          u3420 17E4  
                                        u3340 16BA                                          u3260 1540  
                                        u3500 1118                                          u2540 1F4C  
                                        u2620 23C0                                          u2700 255C  
                                        u3181 28F8                                          u3421 17E0  
                                        u3341 16B6                                          u3261 153C  
                                        u3501 1114                                          u2541 1F48  
                                        u2621 23BC                                          u2701 2558  
                                        u3190 292A                                          u3350 16CC  
                                        u3270 1580                                          u3510 1292  
                                        u3430 104E                                          u2630 249E  
                                        u2710 2582                                          u3191 2926  
                                        u3351 16C8                                          u3271 157C  
                                        u3431 104A                                          u2631 249A  
                                        u2711 257E                                          u3360 16FA  
                                        u3280 15F6                                          u3600 1406  
                                        u3520 12EC                                          u3440 1060  
                                        u2640 24B8                                          u2720 25B4  
                                        u3361 16F6                                          u3281 15F2  
                                        u3601 1402                                          u3521 12E8  
                                        u3441 105C                                          u2641 24B4  
                                        u2721 25B0                                          u3370 1710  
                                        u3290 1618                                          u3610 1440  
                                        u3530 130C                                          u3450 1070  
                                        u2554 1F72                                          u2810 2986  
                                        u2570 2320                                          u2650 24D2  
                                        u2730 2BC6                                          u3371 170C  
                                        u3291 1614                                          u3611 143C  
                                        u3531 1308                                          u3515 1288  
                                        u3451 106C                                          u2555 1F6E  
                                        u2811 2982                                          u2571 231C  
                                        u2651 24CE                                          u2731 2BC2  
                                        u3380 1724                                          u3540 131E  
                                        u3460 10B0                                          u3620 203E  
                                        u3700 1C5E                                          u2740 1E06  
                                        u2564 1FC8                                          u2804 2962  
                                        u2580 233A                                          u2660 24F0  
                                        u2900 1BC8                                          u2820 1AA2  
                                        u3381 1720                                          u3541 131A  
                                        u3461 10AC                                          u3621 203A  
                                        u3701 1C5A                                          u2741 1E02  
                                        u2565 1FC4                                          u2805 295E  
                                        u2581 2336                                          u2661 24EC  
                                        u2901 1BC4                                          u2821 1A9E  
                                        u3390 173E                                          u3550 134C  
                                        u3470 10C2                                          u3630 2072  
                                        u3710 1CBA                                          u2750 1E26  
                                        u2590 2360                                          u2670 2506  
                                        u2910 1C08                                          u2830 1AE2  
                                        u3391 173A                                          u3551 1348  
                                        u3471 10BE                                          u3711 1CB6  
                                        u2751 1E22                                          u4407 2280  
                                        u2591 235C                                          u2671 2502  
                                        u2911 1C04                                          u2831 1ADE  
                                        u3560 1362                                          u3480 10D2  
                                        u3640 20A0                                          u3720 1D10  
                                        u2920 289E                                          u2680 252A  
                                        u2840 1B00                                          u3561 135E  
                                        u3481 10CE                                          u3641 209C  
                                        u3721 1D0C                                          u2921 289A  
                                        u4417 229A                                          u2681 2526  
                                        u2841 1AFC                                          u3570 1376  
                                        u3490 1108                                          u3650 20B4  
                                        u3730 1D5A                                          u2930 28BE  
                                        u2690 254C                                          u2850 1B36  
                                        u3571 1372                                          u3491 1104  
                                        u3651 20B0                                          u3635 2068  
                                        u3731 1D56                                          u2931 28BA  
                                        u4427 22B0                                          u2691 2548  
                                        u2851 1B30                                          u3580 1390  
                                        u3660 20DC                                          u3740 1D78  
                                        u2780 1EEA                                          u2764 1E4C  
                                        u2940 299E                                          u2860 1B38  
                                        u3581 138C                                          u3661 20D8  
                                        u3741 1D74                                          u2781 1EE4  
                                        u2765 1E48                                          u4437 2C52  
                                        u2941 299A                                          u3590 13D8  
                                        u3670 20FC                                          u3750 1D88  
                                        u2790 1EEC                                          u2774 1EA2  
                                        u2870 1B98                                          u2950 2A24  
                                        u3591 13D4                                          u3671 20F8  
                                        u3751 1D84                                          u2775 1E9E  
                                        u2871 1B94                                          u2951 2A20  
                                        u3680 210C                                          u3760 1D96  
                                        u2960 2AEC                                          u2880 1BA8  
                                        u3681 2108                                          u3761 1D92  
                                        u2961 2AE8                                          u2881 1BA4  
                                        u3770 1DD0                                          u3690 1C50  
                                        u2970 2B0C                                          u2890 1BB8  
                                        u3771 1DCC                                          u3691 1C4C  
                                        u2971 2B08                                          u2891 1BB4  
                                        u3780 1DDE                                          u2980 2B2A  
                                        u3781 1DDA                                          u2981 2B26  
                                        u2990 2B48                                          u2991 2B44  
                                        abs@a 0008                                          _dbuf 00A8  
                                        _main 212E                                          _prec 004E  
                                        fsr0h 0FEA                                          fsr1h 0FE2  
                                        indf0 0FEF                                          fsr2h 0FDA  
                                        fsr0l 0FE9                                          indf2 0FDF  
                                        fsr1l 0FE1                                          fsr2l 0FD9  
                    ?_gpio_pin_direction_init 0002                                          btemp 007C  
                            __end_of_ADC_Init 2718                                          prodh 0FF4  
                                        prodl 0FF3                                          start 000E  
                             ___fldiv@new_exp 003A                                  ___param_bank 0000  
             ??_lcd_send_string_data_position 001E                                         ??_abs 000A  
                ?_configure_adc_result_format 0002                              __end_of_INT0_ISR 2D1E  
                            __end_of_INT1_ISR 2D1A                              __end_of_INT2_ISR 2D16  
                     _lcd_set_cursor_position 25E6                                 ___fltol@sign1 004A  
                                       ?_main 0001                             gpio_pin_write@ret 0009  
                             __end_of___fldiv 17F8                               __end_of___awdiv 23D2  
                                       _EEADR 0FA9                               __end_of___awmod 253C  
                             __end_of___flmul 145E                               __end_of___fltol 212E  
                             ___awdiv@divisor 0004                                  led_off@F3072 006C  
                                       i2l900 2D1C                                         i2l910 2D14  
                                       i2l920 2CF2                                         i2l905 2D18  
                                       i2l930 2CD8                                         i2l940 2CBE  
                                       i2l950 2CA4                               ___awdiv@counter 0006  
                           ?_lcd_send_command 0010                                  vfpfcnvrt@fmt 000D  
                                       _PORTA 0F80                                         _PORTB 0F81  
                                       _PORTC 0F82                                         _PORTD 0F83  
                                       _PORTE 0F84                                         _TRISA 0F92  
                                       _TRISB 0F93                                         _TRISC 0F94  
                                       _TRISD 0F95                                         _TRISE 0F96  
                          ??_lcd_send_command 0012                                         _adc_1 0075  
                                       _lcd_1 009E                                         _flags 0066  
                                       _fputc 253C                                         _width 004C  
                                       _putch 2D1E              configure_adc_channel_port@adc_ch 0004  
        lcd_send_string_data_position@lcd_obj 0019                                         tablat 0FF5  
                                       ttemp5 007D                                         ttemp6 0080  
                                       ttemp7 0084                                         status 0FD8  
                                       wtemp8 007D                               __end_of_sprintf 2BB8  
  __end_of_ADC_get_conversion_result_blocking 2940          ??_ADC_get_conversion_result_blocking 000E  
         ?_ADC_get_conversion_result_blocking 000B            _ADC_get_conversion_result_blocking 28EC  
                             __initialization 282C                                  RB4_ISR@state 0001  
                             ??_lcd_send_bits 000C                                  __end_of_main 2228  
   ADC_get_conversion_result_blocking@adc_obj 000B                 ??_configure_adc_result_format 0003  
                                RB5_ISR@state 0001                                        ??_main 004C  
                               __activetblptr 0003                                     ??_RB4_ISR 0001  
                                   ??_RB5_ISR 0001                                     ??_RB6_ISR 0001  
                                   ??_RB7_ISR 0001                    ?_General_Interrupt_Manager 0001  
                   _RB5_High_InterruptHandler 005A                                  RB6_ISR@state 0001  
                                      ?_fputc 0002                                        _ADRESH 0FC4  
                                      _EEADRH 0FAA                                        _ADRESL 0FC3  
                                      _EEDATA 0FA8                                        _EECON2 0FA7  
                            ___awdiv@dividend 0002                 lcd_send_enable_signal@lcd_obj 000A  
                                      ?_putch 0001             configure_adc_volatage_ref@adc_obj 0002  
                                      i2l1020 181A                                        i2l1030 1926  
                                      i2l1022 183A                                        i2l1032 196A  
                                      i2l1024 185A                                        i2l1041 1A7A  
                                      i2l1034 19AE                                        i2l1026 189E  
                                      i2l1036 19F2                                        i2l1028 18E2  
                                      i2l1038 1A36                                        i2l2631 2D12  
                                      i2l2625 2D16                                        i2l2619 2D1A  
                                      i2l2651 2CC2                                        i2l2645 2CF2  
                                      i2l2637 2CDC                                        i2l2653 2CC4  
                                      i2l2639 2CDE                                        i2l2673 2CBE  
                                      i2l2665 2CA8                                        i2l2681 2C90  
                                      i2l3801 19BC                                        i2l2659 2CD8  
                                      i2l2667 2CAA                                        i2l3811 1A00  
                                      i2l3803 19CA                                        i2l3821 1A44  
                                      i2l3813 1A0E                                        i2l3805 19D8  
                                      i2l3741 1816                                        i2l2687 2CA4  
                                      i2l2679 2C8E                                        i2l3823 1A52  
                                      i2l3815 1A1C                                        i2l3807 19E8  
                                      i2l3751 1868                                        i2l3743 1828  
                                      i2l3825 1A60                                        i2l3817 1A2C  
                                      i2l3809 19EC                                        i2l3761 18AC  
                                      i2l3753 1876                                        i2l3745 1836  
                                      i2l3737 17FA                                        i2l3827 1A70  
                                      i2l3819 1A30                                        i2l3771 18F0  
                                      i2l3763 18BA                                        i2l3755 1884  
                                      i2l3747 1848                                        i2l3739 1808  
                                      i2l3829 1A74                                        i2l3781 1934  
                                      i2l3773 18FE                                        i2l3765 18C8  
                                      i2l3757 1894                                        i2l3749 1856  
                                      i2l3791 1978                                        i2l3783 1942  
                                      i2l3775 190C                                        i2l3767 18D8  
                                      i2l3759 1898                                        i2l3793 1986  
                                      i2l3785 1950                                        i2l3777 191C  
                                      i2l3769 18DC                                        i2l3795 1994  
                                      i2l3787 1960                                        i2l3779 1920  
                                      i2l3797 19A4                                        i2l3789 1964  
                                      i2l3799 19A8                                 vfpfcnvrt@done 0010  
                                RB7_ISR@state 0001                              __end_of___xxtofl 1DF2  
                             ADC_Init@adc_obj 0005              ADC_get_conversion_result@adc_obj 0002  
                            __end_of_app_init 2D0A                                  vfprintf@cfmt 001A  
                            __end_of_lcd_init 230E                                        _lm35_C 0079  
                    ??_lcd_send_enable_signal 000B                                     ??___fldiv 0031  
                                   ??___awdiv 0006                                     ??___awmod 0006  
                                   ??___flmul 0018                                     ??___fltol 0046  
                   ??_lcd_set_cursor_position 0017                                 _gpio_pin_init 288E  
                                      _memset 2BEC                                        clear_0 2872  
                                      clear_1 287E                              ___awdiv@quotient 0008  
                             ___awmod@divisor 0004                                        isa$std 0001  
                             ___awmod@counter 0006                                 led_init@F3062 006E  
                                      fputc@c 0002                                  __pdataCOMRAM 0071  
                                   ?_ADC_Init 0005                                  __mediumconst 0000  
                                      tblptrh 0FF7                                        tblptrl 0FF6  
                                      tblptru 0FF8                  ??_configure_adc_volatage_ref 0003  
           __end_of_General_Interrupt_Manager 1A7E                                        putch@c 0001  
                            __end_of_vfprintf 2A96                                     ??_sprintf 001F  
                                ___xxtofl@arg 000C                          lcd_send_bits@lcd_obj 000A  
                                ___xxtofl@exp 000B                          lcd_send_bits@l_count 000F  
                                ___xxtofl@val 0002                                    __accesstop 0080  
                     __end_of__initialization 2884                                     ?_INT0_ISR 0001  
                                   ?_INT1_ISR 0001                                     ?_INT2_ISR 0001  
                               ___rparam_used 0001                                    ___fltol@f1 0042  
                              __pcstackCOMRAM 0001                                  __pidataBANK0 2C1C  
                              ?_gpio_pin_init 000A                                 __end_of_fputc 25E6  
                               __end_of_putch 2D20                                    ??_ADC_Init 0006  
             __end_of_lcd_set_cursor_position 2686                                       ??_fputc 0005  
                                     ??_putch 0002                                    __pbssBANK0 00A8  
                       lcd_send_char_data@ret 0012                         _INT0_InterruptHandler 0064  
                                  ??_INT0_ISR 0001                                    ??_INT1_ISR 0001  
                                  ??_INT2_ISR 0001              lcd_send_string_data_position@col 001D  
            lcd_send_string_data_position@ret 001E              lcd_send_string_data_position@row 001C  
                                  __pnvCOMRAM 0079              lcd_send_string_data_position@str 001A  
                     lcd_send_string_data@ret 0016                       lcd_send_string_data@str 0014  
                          _lcd_send_char_data 2A14                              lcd_send_bits@ret 000E  
                         ?_lcd_send_char_data 0010                   convert_uint16_to_string@str 002E  
                             led_toggle@F3077 006B                                       ?_memset 0002  
                                     _RB4_ISR 2CDA                                       _RB5_ISR 2CC0  
                                     _RB6_ISR 2CA6                                       _RB7_ISR 2C8C  
                                   ?___xxtofl 0002                      _RB6_Low_InterruptHandler 0054  
                                     i2u70_40 2CD4                                       i2u70_41 2CD0  
                                     i2u71_40 2CBA                                       i2u71_41 2CB6  
                                     i2u72_40 2CA0                                       i2u72_41 2C9C  
                                     i2u69_40 2CEE                                       i2u69_41 2CEA  
                        ??_lcd_send_char_data 0012                                     ?_app_init 0001  
                                   ?_lcd_init 0014                                       __Hparam 0000  
                                     __Lparam 0000                               ??_gpio_pin_init 000B  
                                     ___fldiv 145E                                       ___awdiv 230E  
                                     ___awmod 248C                                       ___flmul 1034  
                                     ___fltol 2028                                     ?_vfprintf 0017  
                                __psmallconst 1000                                       __pcinit 282C  
                                     __ramtop 1000                                 relay_on@F3062 0069  
                                     __ptext0 212E                                       __ptext1 2A96  
                                     __ptext2 25E6                                       __ptext3 27A8  
                                     __ptext4 2A14                                       __ptext5 29D0  
                                     __ptext6 2B84                                       __ptext7 2A56  
                                     __ptext8 1A7E                                       __ptext9 253C  
                              _gpio_pin_write 1F18                                       _lat_reg 008A  
                    _convert_uint16_to_string 29D0                                    ??___xxtofl 0006  
          __end_of_configure_adc_volatage_ref 2B12                    _configure_adc_volatage_ref 2AD4  
                            ___awmod@dividend 0002                  ??_configure_adc_channel_port 0002  
                 ??_General_Interrupt_Manager 0002                    __end_of_ADC_select_channel 2B84  
                                  ??_app_init 0018                        _lcd_send_enable_signal 2C44  
                                     _sprintf 2B84                               lcd_init@lcd_obj 0014  
                                  ??_lcd_init 0015                               lcd_init@l_count 0016  
                              __pintcode_body 17F8                          end_of_initialization 2884  
            gpio_pin_direction_init@pin_confg 0002                                       fputc@fp 0004  
                                     memset@c 0003                                       memset@n 0005  
                                     memset@p 0007                                       int_func 17F8  
                           __end_of_vfpfcnvrt 1C3E                        gpio_pin_init@pin_confg 000A  
                                     postdec1 0FE5                                       postdec2 0FDD  
                                     postinc0 0FEE                                       postinc1 0FE6  
                                     postinc2 0FDE                              vfpfcnvrt@convarg 0012  
                                  ??_vfprintf 001A                         __end_of_lcd_send_bits 298A  
                    ADC_select_channel@chanel 0006                        __end_of_gpio_pin_write 2028  
                       lcd_send_bits@data_cmd 000B                         _INT1_InterruptHandler 0062  
                                   _PORTBbits 0F81                                 ___xxtofl@sign 000A  
                                 ___fldiv@grs 003C                                   ___fldiv@rem 0035  
                   _RB6_High_InterruptHandler 0056                              gpio_pin_init@ret 000C  
              lcd_set_cursor_position@lcd_obj 0014                                   ___flmul@grs 001D  
                     gpio_pin_write@pin_confg 0002                       gpio_pin_write@pin_state 0003  
                   _General_Interrupt_Manager 0008                             relay_toggle@F3072 0067  
                __end_of_ADC_start_conversion 2C8C           __end_of_configure_adc_result_format 2B4C  
                 _configure_adc_result_format 2B12                       _gpio_pin_direction_init 1DF2  
                   ADC_select_channel@adc_obj 0005                                   vfpfcnvrt@ap 000E  
                                 vfpfcnvrt@cp 0011                                   vfpfcnvrt@fp 000C  
                               __pidataCOMRAM 2D0A                               ?_gpio_pin_write 0002  
                              __end_of_memset 2C1C                           start_initialization 282C  
                __end_of_lcd_send_string_data 282C                 convert_uint16_to_string@value 002C  
                                 __end_of_abs 2BEC      ADC_get_conversion_result_blocking@chanel 000C  
                            _lcd_send_command 298A                      ?_lcd_set_cursor_position 0014  
                                 vfprintf@fmt 0018                                   __pdataBANK0 0080  
                                    ??_memset 0007                                    memset@dest 0002  
          __end_of_configure_adc_channel_port 248C                    _configure_adc_channel_port 23D2  
                                   ___fldiv@a 002D                                     ___fldiv@b 0029  
                                    ?_RB4_ISR 0001                                      ?_RB5_ISR 0001  
                                    ?_RB6_ISR 0001                                      ?_RB7_ISR 0001  
       __end_of_lcd_send_string_data_position 2AD4                 _lcd_send_string_data_position 2A96  
                                   ___flmul@a 0014                                     ___flmul@b 0010  
                                 __pbssCOMRAM 004C                        lcd_send_char_data@data 0011  
                   lcd_send_char_data@lcd_obj 0010                    lcd_set_cursor_position@col 0016  
                  lcd_set_cursor_position@row 0015                         _INT2_InterruptHandler 0060  
                   ??_gpio_pin_direction_init 0003                                     __pintcode 0008  
                  ??_convert_uint16_to_string 002F                    ?_ADC_get_conversion_result 0002  
                                    ?___fldiv 0029                                      ?___awdiv 0002  
                                    ?___awmod 0002                                      ?___flmul 0010  
                                    ?___fltol 0042                           lcd_send_command@cmd 0011  
                         lcd_send_command@ret 0013                                   __smallconst 1000  
                     ?_lcd_send_enable_signal 000A                   lcd_send_string_data@lcd_obj 0013  
                                    _ADC_Init 2686                   ?_configure_adc_volatage_ref 0002  
                    _RB5_Low_InterruptHandler 0058                                   ADC_Init@ret 0007  
                                    ?_sprintf 001B                          _ADC_start_conversion 2C6A  
                                    _INT0_ISR 2D1A                                      _INT1_ISR 2D16  
                                    _INT2_ISR 2D12                                      _RB4_Flag 0074  
                                    _RB5_Flag 0073                                      _RB6_Flag 0072  
                              _keypad_buttons 1001                                      _RB7_Flag 0071  
ADC_get_conversion_result_blocking@adc_result 000D                            _ADC_select_channel 2B4C  
                                    i2u210_40 1836                                      i2u210_41 1832  
                                    i2u211_40 1848                                      i2u211_41 1844  
                                    i2u220_40 18D8                                      i2u212_40 1856  
                                    i2u220_41 18D4                                      i2u212_41 1852  
                                    i2u221_40 18F0                                      i2u213_40 1868  
                                    i2u221_41 18EC                                      i2u213_41 1864  
                                    i2u230_40 1986                                      i2u222_40 18FE  
                                    i2u214_40 1876                                      i2u230_41 1982  
                                    i2u222_41 18FA                                      i2u214_41 1872  
                                    i2u231_40 1994                                      i2u223_40 190C  
                                    i2u215_40 1884                                      i2u207_40 1808  
                                    i2u231_41 1990                                      i2u223_41 1908  
                                    i2u215_41 1880                                      i2u207_41 1804  
                                    i2u240_40 1A2C                                      i2u232_40 19A4  
                                    i2u224_40 191C                                      i2u216_40 1894  
                                    i2u208_40 1816                                      i2u240_41 1A28  
                                    i2u232_41 19A0                                      i2u224_41 1918  
                                    i2u216_41 1890                                      i2u208_41 1812  
                                    i2u241_40 1A44                                      i2u233_40 19BC  
                                    i2u225_40 1934                                      i2u217_40 18AC  
                                    i2u209_40 1828                                      i2u241_41 1A40  
                                    i2u233_41 19B8                                      i2u225_41 1930  
                                    i2u217_41 18A8                                      i2u209_41 1824  
                                    i2u242_40 1A52                                      i2u234_40 19CA  
                                    i2u226_40 1942                                      i2u218_40 18BA  
                                    i2u242_41 1A4E                                      i2u234_41 19C6  
                                    i2u226_41 193E                                      i2u218_41 18B6  
                                    i2u243_40 1A60                                      i2u235_40 19D8  
                                    i2u227_40 1950                                      i2u219_40 18C8  
                                    i2u243_41 1A5C                                      i2u235_41 19D4  
                                    i2u227_41 194C                                      i2u219_41 18C4  
                                    i2u244_40 1A70                                      i2u236_40 19E8  
                                    i2u228_40 1960                                      i2u244_41 1A6C  
                                    i2u236_41 19E4                                      i2u228_41 195C  
                                    i2u237_40 1A00                                      i2u229_40 1978  
                                    i2u237_41 19FC                                      i2u229_41 1974  
                                    i2u238_40 1A0E                                      i2u238_41 1A0A  
                                    i2u239_40 1A1C                                      i2u239_41 1A18  
                        _lcd_send_string_data 27A8                         __end_of_gpio_pin_init 28EC  
           __end_of_ADC_get_conversion_result 27A8                           ?_ADC_select_channel 0005  
                                   _vfpfcnvrt 1A7E                                    _ADCON0bits 0FC2  
                                  _ADCON1bits 0FC1                                    _ADCON2bits 0FC0  
              __end_of_lcd_send_enable_signal 2C6A               __end_of_gpio_pin_direction_init 1F18  
                             relay_init@F3057 006A                                    vfpfcnvrt@c 0016  
                       ?_ADC_start_conversion 0002                                   _INTCON2bits 0FF1  
                                 _INTCON3bits 0FF0                                     copy_data0 2840  
                                   copy_data1 2860                ?_lcd_send_string_data_position 0019  
                        ??_ADC_select_channel 0007                        __end_of_keypad_buttons 1011  
                                  _EECON1bits 0FA6                                      __Hrparam 0000  
                       ?_lcd_send_string_data 0013                                    vfprintf@ap 0019  
                                    __Lrparam 0000                                    vfprintf@fp 0017  
                            ??_gpio_pin_write 0004                         ADC_select_channel@ret 0008  
                                    _lm35_res 006F                                    ?_vfpfcnvrt 000C  
                                    _lm35_txt 00C8                      __end_of_lcd_send_command 29D0  
       ADC_get_conversion_result_blocking@ret 000E                                    sprintf@fmt 001C  
                                    ___xxtofl 1C3E                     _RB4_High_InterruptHandler 005E  
                                    __ptext10 2D1E                                      __ptext11 2BB8  
                                    __ptext20 288E                                      __ptext12 248C  
                                    __ptext21 1F18                                      __ptext13 230E  
                                    __ptext30 28EC                                      __ptext22 1DF2  
                                    __ptext14 2BEC                                      __ptext31 2C6A  
                                    __ptext23 2686                                      __ptext15 2CF4  
                                    __ptext40 2D12                                      __ptext32 2B4C  
                                    __ptext24 2AD4                                      __ptext16 2228  
                                    __ptext41 2D16                                      __ptext33 23D2  
                                    __ptext25 2B12                                      __ptext17 298A  
                                    __ptext42 2D1A                                      __ptext34 2718  
                                    __ptext26 1C3E                                      __ptext18 2C44  
                                    __ptext27 2028                                      __ptext19 2940  
                                    __ptext36 2C8C                                      __ptext28 1034  
                                    __ptext37 2CA6                                      __ptext29 145E  
                                    __ptext38 2CC0                                      __ptext39 2CDA  
                                    _app_init 2CF4                     _RB7_High_InterruptHandler 0052  
                                    _lcd_init 2228                                relay_off@F3067 0068  
                   lcd_send_enable_signal@ret 000B              __end_of_convert_uint16_to_string 2A14  
                                    isa$xinst 0000                                      int$flags 007C  
                                    _port_reg 0080                                      _vfprintf 2A56  
                                    _tris_reg 0094                  ADC_get_conversion_result@ret 000A  
                 ?_configure_adc_channel_port 0001                                    _INTCONbits 0FF2  
                     lcd_send_command@lcd_obj 0010                       lcd_send_command@l_count 0012  
                      ??_ADC_start_conversion 0003                                      intlevel2 0000  
                                   sprintf@ap 001F                       ADC_start_conversion@ret 0003  
         ADC_get_conversion_result@adc_result 0003                        ??_lcd_send_string_data 0016  
                 ??_ADC_get_conversion_result 0004            configure_adc_result_format@adc_obj 0002  
                                 ??_vfpfcnvrt 000F                                 _lcd_send_bits 2940  
                                    sprintf@f 0020                                      sprintf@s 001B  
                  gpio_pin_direction_init@ret 0008                   ADC_start_conversion@adc_obj 0002  
